ccopy_reg
_reconstructor
p1
(cbpnn.network
Network
p2
c__builtin__
object
p3
NtRp4
(dp5
S'learning_rate'
p6
F0.10000000000000001
sS'error'
p7
F0.013492286706234901
sS'h_layer'
p8
(lp9
g1
(cbpnn.neuron
Neuron
p10
g3
NtRp11
(dp12
S'last_weight_step'
p13
(lp14
F3.34547521158024e-07
aF2.5091064081994574e-07
aF2.0892820684625946e-07
aF5.8217828474704802e-09
aF3.5176687881999236e-08
aF4.6902250527836031e-08
aF7.1009351287898426e-08
aF2.5091064081994574e-07
aF2.5091064081994574e-07
aF2.5091064081994574e-07
aF2.5091064086504855e-07
aF1.8818298064271488e-07
aF1.5669615510693902e-07
aF3.1240834696966147e-08
aF1.8818298075373718e-07
aF2.5091064087545689e-07
aF1.8818298064271488e-07
aF1.8818298064271488e-07
aF1.8818298064271488e-07
aF1.8818298064271488e-07
aF2.5091064087545689e-07
aF1.8818298064271488e-07
aF1.5669615513469459e-07
aF3.1240834696966147e-08
aF1.8818298064271488e-07
aF2.5091064081994574e-07
aF1.8818298064271488e-07
aF1.8818298064271488e-07
aF1.8818298064271488e-07
aF1.8818298064271488e-07
aF2.5091064087545689e-07
aF1.8818298064271488e-07
aF1.5669615510693902e-07
aF2.2713152775244438e-08
aF1.3701688916789578e-07
aF1.9121686750667166e-07
aF1.8818298064965377e-07
aF1.8818298064965377e-07
aF1.8818298064271488e-07
aF1.8818298064271488e-07
aF2.5091064087545689e-07
aF1.8818298064965377e-07
aF1.5669615516245017e-07
aF9.6756390677299464e-09
aF5.8545816195021416e-08
aF1.549742195683379e-08
aF9.1918571420990247e-08
aF1.8818298064271488e-07
aF1.8818298064271488e-07
aF1.8818298064271488e-07
aF3.3454752113026842e-07
aF2.5091064081994574e-07
aF2.4566283662874611e-07
aF2.2467161958639181e-07
aF2.5091064087545689e-07
aF2.8272545415930495e-07
aF2.6567009037137268e-08
aF2.1417601103745909e-07
aF2.5091064081994574e-07
aF2.5091064087545689e-07
aF2.5091064081994574e-07
aF1.8818298064271488e-07
aF1.8818298064271488e-07
aF1.8818298064271488e-07
aF1.8818298064271488e-07
aF2.5091064081994574e-07
aF3.1240834696966147e-08
aF1.1085986484360433e-07
aF1.8818298064271488e-07
aF1.8818298064271488e-07
aF2.5091064081994574e-07
aF1.8818298064271488e-07
aF1.8818298064271488e-07
aF1.8818298064271488e-07
aF1.8818298064271488e-07
aF2.5091064081994574e-07
aF3.1240834696966147e-08
aF1.0831795966767532e-07
aF1.8818298064271488e-07
aF1.8818298064271488e-07
aF2.5091064081994574e-07
aF1.8818298064271488e-07
aF1.7112761685478262e-07
aF1.8818298064271488e-07
aF1.8818298064271488e-07
aF2.4238295892597961e-07
aF2.2713152803000014e-08
aF1.5669615516245017e-07
aF1.8818298064271488e-07
aF1.8818298064271488e-07
aF2.5091064087545689e-07
aF1.8818298064271488e-07
aF9.9790277707789699e-08
aF5.0756106761973285e-08
aF1.2914518277007403e-07
aF8.7900721257305747e-08
aF4.485232696360697e-08
aF1.8227920084434857e-07
aF1.8818298064271488e-07
aF1.8818298064271488e-07
asS'activation'
p15
F7.0779660039074557
sS'bias'
p16
I-1
sS'weights'
p17
(lp18
F-0.14765232873935324
aF-0.73320761349491581
aF0.64653599931407546
aF0.12234187521443235
aF-0.10786670206782327
aF0.16755829357437432
aF0.51100345506349232
aF-0.90255615642019571
aF-0.50773361651446203
aF-0.60489574171035099
aF0.022229951503596995
aF-0.49955403570187829
aF0.31730885504733514
aF-0.6173201704515181
aF1.0008671620259126
aF0.46918553664302637
aF-0.31309571295388083
aF-0.38195823491703451
aF-0.10653263583607583
aF-0.94563351355765668
aF0.40200421463423969
aF0.88282181673126503
aF-0.15279247519075204
aF0.28510107205477087
aF0.64443387608641345
aF0.58495287531226814
aF0.50216606686198828
aF-0.78661618746272821
aF0.67977671728264222
aF-0.87521173557023479
aF0.26041919303522126
aF0.35230733817995757
aF0.33022922540224103
aF-0.1708825259552462
aF0.79259456289082542
aF-0.26500976513455032
aF-0.056984913837972086
aF-0.016046137070247157
aF0.50628193303220004
aF-0.66620857495771324
aF-0.36850793991398662
aF0.058076791964078514
aF-0.54238810428343598
aF-0.41419402904636859
aF-0.62181811702013379
aF-0.41787389353076748
aF-0.81166224563134981
aF-0.90206655021684001
aF-0.78594327259822505
aF0.31582393706593376
aF0.40078154896441121
aF0.65661015146201451
aF0.90560675316537176
aF-0.25748942471932462
aF0.45879785914543975
aF0.81460253760223378
aF0.52787991551630231
aF0.89410792351787904
aF0.80990834492939967
aF-0.4983038663658968
aF0.5568477749032984
aF0.63391989173784069
aF-0.73725173240176134
aF-0.27382662700487087
aF0.81733476596341181
aF0.62384896696084213
aF0.70028028884002058
aF0.49446497687000301
aF0.84771237116663956
aF0.69036137500007222
aF0.70935675977669443
aF0.5528900559951605
aF0.15757940105860641
aF-0.46463004323268758
aF0.16243560696197909
aF0.72507068071806247
aF0.76021753434700223
aF-0.025869996296988142
aF0.79162025467694452
aF0.78224129479864335
aF0.79666375664795985
aF-0.35355432896159694
aF0.52039470533534271
aF-0.85239411285630751
aF0.56606093633731558
aF0.58253908390874765
aF-0.80203505832994437
aF-0.67588160240148198
aF0.5304700562956467
aF0.39620167841186943
aF0.3258574736567636
aF0.77164094260648908
aF-0.84334803059322594
aF0.34356140686131431
aF-0.55749442301584207
aF-0.68944027029501809
aF-0.3046253651164495
aF0.48253985406747729
aF-0.2071354339966669
aF-0.58449304666892832
asg7
F3.3454752115190588e-06
sS'threshold'
p19
F-0.089136894059484009
sbag1
(g10
g3
NtRp20
(dp21
g13
(lp22
F7.0739665812669106e-05
aF5.3054749359515707e-05
aF4.4177614826113043e-05
aF1.2310088903788596e-06
aF7.4380678023455715e-06
aF9.9174237364885176e-06
aF1.5014840831772958e-05
aF5.3054749359460196e-05
aF5.3054749359515707e-05
aF5.3054749359501829e-05
aF5.3054749359460196e-05
aF3.9791062019630058e-05
aF3.3133211119640293e-05
aF6.6058364398546843e-06
aF3.9791062019678414e-05
aF5.3054749359460196e-05
aF3.9791062019622903e-05
aF3.9791062019622903e-05
aF3.9791062019678414e-05
aF3.9791062019629841e-05
aF5.3054749359515707e-05
aF3.9791062019622903e-05
aF3.3133211119640293e-05
aF6.6058364398546843e-06
aF3.9791062019622903e-05
aF5.3054749359460196e-05
aF3.9791062019678414e-05
aF3.9791062019678414e-05
aF3.9791062019678414e-05
aF3.9791062019622903e-05
aF5.3054749359460196e-05
aF3.9791062019678414e-05
aF3.3133211119640293e-05
aF4.8026684877910952e-06
aF2.8972054307074835e-05
aF4.043257369490405e-05
aF3.9791062019678414e-05
aF3.9791062019622903e-05
aF3.9791062019678414e-05
aF3.9791062019678414e-05
aF5.3054749359515707e-05
aF3.9791062019678414e-05
aF3.3133211119640293e-05
aF2.0459020994845201e-06
aF1.2379441517218481e-05
aF3.2769109898911353e-06
aF1.9436069945144574e-05
aF3.979106201963678e-05
aF3.979106201963678e-05
aF3.9791062019622903e-05
aF7.0739665812724617e-05
aF5.3054749359515707e-05
aF5.1945107542861191e-05
aF4.7506540276132103e-05
aF5.3054749359460196e-05
aF5.9781952873065244e-05
aF5.6175616969245112e-06
aF4.5287256642823071e-05
aF5.3054749359501829e-05
aF5.3054749359460196e-05
aF5.3054749359460196e-05
aF3.9791062019622903e-05
aF3.9791062019622903e-05
aF3.9791062019622903e-05
aF3.9791062019567391e-05
aF5.3054749359460196e-05
aF6.6058364398546843e-06
aF2.3441183377159724e-05
aF3.9791062019678414e-05
aF3.9791062019622903e-05
aF5.3054749359515707e-05
aF3.9791062019622903e-05
aF3.9791062019567391e-05
aF3.9791062019622903e-05
aF3.9791062019622903e-05
aF5.3054749359515707e-05
aF6.6058364398546843e-06
aF2.2903700622189938e-05
aF3.9791062019629841e-05
aF3.9791062019622903e-05
aF5.3054749359501829e-05
aF3.979106201963678e-05
aF3.6184726115440213e-05
aF3.9791062019567391e-05
aF3.9791062019622903e-05
aF5.1251581407507629e-05
aF4.8026684877633397e-06
aF3.3133211119640293e-05
aF3.9791062019622903e-05
aF3.9791062019622903e-05
aF5.3054749359507034e-05
aF3.9791062019622903e-05
aF2.1100532670015326e-05
aF1.0732316945594178e-05
aF2.730759158209306e-05
aF1.8586500429212949e-05
aF9.4839699018578472e-06
aF3.8542714975831061e-05
aF3.9791062019622903e-05
aF3.9791062019622903e-05
asg15
F1.7680905255029473
sg16
I-1
sg17
(lp23
F0.31969824798838714
aF-0.39229671090491591
aF0.61455221464286469
aF-1.3878326098247669
aF0.54983129365482142
aF-0.1463840837228122
aF0.88444453250299848
aF0.65672352915152243
aF-0.41936605135638227
aF-0.095271578092636672
aF-0.69439987552428095
aF0.0016785654637122241
aF0.399034961896019
aF0.34751136288130019
aF0.64576120145062743
aF0.59745642137548316
aF0.42241459162395018
aF0.35234380682033889
aF-0.76975304963895785
aF-0.032593900494342916
aF-0.48878774303922068
aF-0.48571116765875205
aF-0.7709479895455289
aF-0.23178902133393514
aF0.40362464160738631
aF0.71536087269953497
aF0.96225641817010921
aF0.9902683925290261
aF-0.53402357455599925
aF0.17234958434684094
aF0.57469267203467378
aF-0.58915634565438124
aF-0.76443689948972648
aF1.0262521913615377
aF0.93861014692452982
aF0.90052665473675209
aF-0.64338572698713781
aF-0.43520161439436295
aF0.62724752505306458
aF0.80403809739536969
aF-0.25409104381034675
aF0.73279339482774108
aF-0.4543739259323975
aF-0.070061587209566359
aF-0.17128139584352306
aF-1.2388531189816796
aF-0.7085570065048441
aF-0.06795325086054646
aF0.11906615862415956
aF0.12532991998631166
aF-0.78009809263551677
aF-0.4066681571098788
aF-0.42425729125918554
aF-0.42718129458114962
aF-0.5333346283956365
aF-0.0066124233343669543
aF-1.570429056145688
aF0.29811766676367496
aF0.085227202864113116
aF-0.77180946242731363
aF-0.74229446470559524
aF-0.46763333379581368
aF0.1698555790843832
aF-0.2692897162108448
aF-1.2320784310487072
aF-0.74100624905265011
aF-0.1450886632895993
aF-0.84484643187884934
aF-0.66691046016697253
aF-0.30839914471063884
aF0.4015015808888297
aF0.3932727877395446
aF1.3555392557656694
aF0.1425537987391392
aF-0.21121948963184384
aF-0.39501631618184047
aF-0.51947588767593544
aF-0.73178120527158907
aF-0.046763406421904456
aF0.37648846436030264
aF0.064147388776299066
aF-0.0966106557484952
aF0.91410706948707821
aF1.2371006395468684
aF0.23563621333272905
aF1.1947151466158004
aF-0.18793408768635286
aF1.0040633168383846
aF-0.13463971963270877
aF0.48462387152566305
aF0.0073979161879437439
aF0.49905324719130961
aF-1.1229949738693286
aF-0.63235506640724748
aF0.90623965477900681
aF-0.17090443469850503
aF-0.66435976192101232
aF0.648865825575341
aF-0.20392957468086942
aF0.17608456501525244
asg7
F0.00070739665812675687
sg19
F-0.62551564646604541
sbag1
(g10
g3
NtRp24
(dp25
g13
(lp26
F6.1117443168168251e-05
aF4.5838082376126188e-05
aF3.8168442449082463e-05
aF1.0635633492517282e-06
aF6.4263193919611439e-06
aF8.5684258559481918e-06
aF1.297247690779102e-05
aF4.583808237611231e-05
aF4.5838082376126188e-05
aF4.5838082376126188e-05
aF4.5838082376126188e-05
aF3.4378561782066885e-05
aF2.8626331836867358e-05
aF5.7072906487487529e-06
aF3.4378561782122397e-05
aF4.5838082376126188e-05
aF3.4378561782011374e-05
aF3.4378561782066885e-05
aF3.4378561782066885e-05
aF3.4378561782122397e-05
aF4.5838082376126188e-05
aF3.4378561782122397e-05
aF2.8626331836839602e-05
aF5.7072906488042641e-06
aF3.4378561782066885e-05
aF4.583808237611231e-05
aF3.4378561782011374e-05
aF3.4378561782122397e-05
aF3.4378561782066885e-05
aF3.4378561782122397e-05
aF4.5838082376126188e-05
aF3.4378561782066885e-05
aF2.862633183685348e-05
aF4.1493950386772838e-06
aF2.5031188121027448e-05
aF3.493281310495977e-05
aF3.4378561782122397e-05
aF3.4378561782122397e-05
aF3.4378561782066885e-05
aF3.4378561782066885e-05
aF4.5838082376126188e-05
aF3.4378561782122397e-05
aF2.8626331836867358e-05
aF1.7676123269250166e-06
aF1.0695552554451648e-05
aF2.8311756761767448e-06
aF1.6792317105718269e-05
aF3.4378561782066885e-05
aF3.4378561782122397e-05
aF3.4378561782066885e-05
aF6.1117443168168251e-05
aF4.5838082376126188e-05
aF4.4879377385287356e-05
aF4.1044557421709982e-05
aF4.5838082376126188e-05
aF5.1650231383315592e-05
aF4.8534440162950609e-06
aF3.9127147440032317e-05
aF4.5838082376126188e-05
aF4.5838082376126188e-05
aF4.5838082376126188e-05
aF3.4378561782122397e-05
aF3.4378561782122397e-05
aF3.4378561782122397e-05
aF3.4378561782094641e-05
aF4.5838082376015166e-05
aF5.7072906488042641e-06
aF2.0252642932205855e-05
aF3.4378561782122397e-05
aF3.4378561782066885e-05
aF4.5838082376126188e-05
aF3.4378561782122397e-05
aF3.4378561782066885e-05
aF3.4378561782122397e-05
aF3.4378561782066885e-05
aF4.5838082376126188e-05
aF5.7072906487487529e-06
aF1.978827020221452e-05
aF3.4378561782066885e-05
aF3.4378561782066885e-05
aF4.5838082376126188e-05
aF3.4378561782066885e-05
aF3.1262770561757414e-05
aF3.4378561782066885e-05
aF3.4378561782122397e-05
aF4.4280186765943697e-05
aF4.1493950386772838e-06
aF2.8626331836867358e-05
aF3.4378561782087702e-05
aF3.4378561782122397e-05
aF4.5838082376126188e-05
aF3.4378561782122397e-05
aF1.8230374592032028e-05
aF9.2724748335937246e-06
aF2.3593130634769199e-05
aF1.6058308597077797e-05
aF8.1939317188584049e-06
aF3.330001866730381e-05
aF3.4378561782094641e-05
aF3.4378561782094641e-05
asg15
F1.4345104411310465
sg16
I-1
sg17
(lp27
F-0.65643142733052695
aF-0.64753944510070949
aF0.64702808239885079
aF-0.1568029523349494
aF-0.5522430411840541
aF-0.96529958664627946
aF-0.54402827984769386
aF-0.10281790983193297
aF-0.49951794800816057
aF0.213226107588809
aF-0.90122511077940359
aF-0.37628672857127993
aF0.27164157783104764
aF-1.1147997252838433
aF0.6021634106622995
aF0.57682669363771188
aF1.1797408937855023
aF-0.32316869119033498
aF-0.37608816663483929
aF0.66136613946091005
aF0.29598317380309125
aF0.85957278721841623
aF-0.13396016226040158
aF0.30000711205962677
aF0.38034117082776142
aF0.10638697277430147
aF1.1559114529959451
aF0.6607496712121097
aF-0.27286528637093249
aF-0.96070026018976673
aF0.88085041397643149
aF0.47729993943430343
aF0.12441354846924885
aF-1.2209972242492309
aF-0.52043031068231138
aF-0.42110954068517392
aF0.91260105300240169
aF-0.63059404602688696
aF-0.33043886247045268
aF0.3835060029963499
aF0.2169610506192195
aF-0.71112161045097921
aF-0.3655774242549919
aF0.17458985470993363
aF-0.27164031555828966
aF-0.2737037310709462
aF0.68808127771687733
aF0.26519743283869918
aF0.8352696735658971
aF0.3342076663065589
aF0.19153722609073129
aF0.70080755272975193
aF-0.588623757597593
aF-0.62736294763839551
aF0.35060413353789055
aF-0.9539866331374004
aF0.09499613778613189
aF-0.33510315842374661
aF-0.26492098018637722
aF0.73628568299045871
aF0.22602917850810311
aF0.92098886688043535
aF-0.53483024960072445
aF0.60233825195550672
aF-0.24520647001717233
aF-1.2820945446723846
aF-0.37457145097384303
aF0.2751218497072177
aF0.94236440776118657
aF-0.2940341050780147
aF0.1607410478074543
aF-0.55159734813065642
aF0.33582541901873819
aF-0.57695882734372161
aF0.38297208926800047
aF0.99062151630458484
aF-0.66273425947051867
aF1.2442969850170225
aF-0.35803778182732288
aF-0.33193432583191124
aF0.35253348456107181
aF-0.44954632185941629
aF-0.64961051335172371
aF0.30541280716901525
aF0.95949453483295666
aF-1.2384629968403207
aF1.0486210178288189
aF-0.76294788148409243
aF0.030681498115991749
aF0.69656687161959607
aF0.76515622622301804
aF0.55802602860851636
aF0.96715422018912889
aF-0.21109718657156928
aF-0.10605863310705024
aF-0.69761126316808664
aF-0.27694629803683657
aF0.73622004763614646
aF-0.24124618534175138
aF-0.13446946835603771
asg7
F0.00061117443168156324
sg19
F1.0239361910251181
sbag1
(g10
g3
NtRp28
(dp29
g13
(lp30
F-1.2427489448629814e-06
aF-9.3206170859172488e-07
aF-7.7610889981372111e-07
aF-2.1626268442709318e-08
aF-1.3067139642553016e-07
aF-1.7422852849335868e-07
aF-2.6377955542056242e-07
aF-9.3206170859172488e-07
aF-9.3206170861948046e-07
aF-9.3206170870274718e-07
aF-9.3206170859172488e-07
aF-6.9904628141603808e-07
aF-5.8208167486029083e-07
aF-1.1605082061993954e-07
aF-6.9904628141603808e-07
aF-9.3206170859172488e-07
aF-6.9904628141603808e-07
aF-6.9904628141603808e-07
aF-6.9904628141603808e-07
aF-6.9904628141603808e-07
aF-9.3206170861948046e-07
aF-6.9904628141603808e-07
aF-5.8208167486029083e-07
aF-1.1605082059218397e-07
aF-6.9904628145767145e-07
aF-9.3206170861948046e-07
aF-6.9904628147154924e-07
aF-6.9904628147154924e-07
aF-6.9904628141603808e-07
aF-6.9904628147154924e-07
aF-9.3206170859172488e-07
aF-6.9904628141603808e-07
aF-5.8208167486029083e-07
aF-8.437290632823391e-08
aF-5.0897879577682659e-07
aF-7.1031630866080775e-07
aF-6.9904628145767145e-07
aF-6.9904628147154924e-07
aF-6.9904628141603808e-07
aF-6.9904628147154924e-07
aF-9.3206170859172488e-07
aF-6.9904628141603808e-07
aF-5.8208167488978113e-07
aF-3.5942248899356599e-08
aF-2.1748106537877732e-07
aF-5.7568517286554766e-08
aF-3.4145136448837654e-07
aF-6.9904628141603808e-07
aF-6.9904628147154924e-07
aF-6.9904628146027353e-07
aF-1.2427489448629814e-06
aF-9.3206170859172488e-07
aF-9.1256760748059662e-07
aF-8.3459120314710589e-07
aF-9.3206170861254156e-07
aF-1.0502446965432455e-06
aF-9.8688886784881191e-08
aF-7.9560300092484937e-07
aF-9.3206170861948046e-07
aF-9.3206170861254156e-07
aF-9.3206170859172488e-07
aF-6.9904628147154924e-07
aF-6.9904628147154924e-07
aF-6.9904628145767145e-07
aF-6.9904628147154924e-07
aF-9.3206170861948046e-07
aF-1.1605082056442839e-07
aF-4.1181288562563978e-07
aF-6.9904628141603808e-07
aF-6.9904628141603808e-07
aF-9.3206170859172488e-07
aF-6.9904628141603808e-07
aF-6.9904628147154924e-07
aF-6.9904628147154924e-07
aF-6.9904628147154924e-07
aF-9.3206170861948046e-07
aF-1.1605082061993954e-07
aF-4.0237043041901899e-07
aF-6.9904628145767145e-07
aF-6.9904628147154924e-07
aF-9.3206170859172488e-07
aF-6.9904628147154924e-07
aF-6.3569045294364912e-07
aF-6.9904628141603808e-07
aF-6.9904628141603808e-07
aF-9.003837943555304e-07
aF-8.437290632823391e-08
aF-5.8208167491580198e-07
aF-6.9904628145767145e-07
aF-6.9904628145767145e-07
aF-9.3206170859172488e-07
aF-6.9904628141603808e-07
aF-3.7069251612731335e-07
aF-1.8854450900551711e-07
aF-4.7973764416564535e-07
aF-3.2652619333384258e-07
aF-1.6661364529713119e-07
aF-6.7711541773540773e-07
aF-6.9904628141603808e-07
aF-6.9904628147154924e-07
asg15
F4.7358255374544047
sg16
I-1
sg17
(lp31
F0.94150909637520952
aF0.51245880984912184
aF0.83379883293726376
aF-0.55373999521905137
aF-0.27037066358479833
aF0.71678120458840522
aF0.85608946129354857
aF0.85839616640464089
aF0.17661584858986629
aF1.0941534411956382
aF-0.88653946720700016
aF0.8065423120355808
aF-0.51738186803524733
aF0.80704058161215664
aF-0.5747013322351664
aF0.60457790949299661
aF-0.85186895591938516
aF0.68782365117389566
aF-0.73418261110822214
aF-0.6099597256035465
aF0.14943046535647636
aF-0.65736138228769669
aF0.77380876468150483
aF-0.21497844430051233
aF-0.11351410311744291
aF0.18480940820376909
aF0.19706698240791526
aF-0.47220994808263106
aF0.80391671466039338
aF0.49119364678029104
aF-0.4290409540744799
aF0.66063181314040098
aF0.69695622259503098
aF0.64702938501911533
aF0.069216329062819201
aF0.3102533385416345
aF0.073416727760119593
aF0.24627330359040092
aF0.55700738476634792
aF-0.19453961553624669
aF-0.55543479761368486
aF0.61270028733535509
aF-0.0096064572493799582
aF0.25682216905674227
aF-0.56614346577311914
aF-0.7968086018619841
aF0.14874885636099683
aF0.92699551138774561
aF0.36636845672563995
aF0.0023662696084215972
aF-0.838599882114204
aF-0.46255112318583652
aF0.81751552472845324
aF0.43736420937925324
aF0.033590635229406529
aF0.92052401267704453
aF0.41575161063836724
aF-0.80991453689352066
aF-0.14871285392760852
aF0.018858711141338053
aF0.92299279345679675
aF-0.2037528333010161
aF0.31503006456557325
aF0.043943532313652695
aF0.38507914473035781
aF-0.24159072257588673
aF-0.35801537767180819
aF0.21528923131580338
aF0.57777111461664066
aF-0.91355545480956812
aF0.49443824251251872
aF-0.73550122616091906
aF0.27985794752969917
aF0.17450976354411446
aF0.40205974853085491
aF-0.18246337512970304
aF-0.89766744486415939
aF0.79200070779792686
aF-0.11233530526671452
aF0.32375214335578545
aF-0.38482040483124264
aF0.39136658750897152
aF1.0452215384805419
aF-0.89896613066430353
aF-0.77344553095870461
aF-0.41821455453753792
aF-0.297116424858763
aF0.44255622509047721
aF0.10149248437293852
aF0.041613942694042248
aF-0.47130839642324956
aF-0.66148569467873908
aF0.50812919678885649
aF-0.25637219907360848
aF0.77553808667388813
aF0.15424034218529345
aF-0.031257409557764522
aF-0.35619340684644935
aF0.92881349255996426
aF-0.42315472096884604
asg7
F-1.242748944818402e-05
sg19
F0.65241325912191295
sbag1
(g10
g3
NtRp32
(dp33
g13
(lp34
F2.4917677100000368e-06
aF1.8688257825139054e-06
aF1.5561333639446673e-06
aF4.336164394214137e-08
aF2.6200204597884302e-07
aF3.493360613004981e-07
aF5.2888991097788107e-07
aF1.8688257824583943e-06
aF1.8688257825000276e-06
aF1.8688257825139054e-06
aF1.8688257824583943e-06
aF1.4016193368715513e-06
aF1.1671000229585005e-06
aF2.3268713178481448e-07
aF1.4016193368715513e-06
aF1.8688257825139054e-06
aF1.4016193368715513e-06
aF1.4016193369270624e-06
aF1.4016193368715513e-06
aF1.4016193369270624e-06
aF1.8688257824583943e-06
aF1.4016193368715513e-06
aF1.167100022986256e-06
aF2.3268713172930333e-07
aF1.4016193368715513e-06
aF1.8688257824583943e-06
aF1.4016193369270624e-06
aF1.4016193368784902e-06
aF1.4016193368715513e-06
aF1.4016193369270624e-06
aF1.8688257825139054e-06
aF1.4016193368715513e-06
aF1.1671000230140116e-06
aF1.6917148426554007e-07
aF1.020525451811416e-06
aF1.4242162499344957e-06
aF1.4016193369270624e-06
aF1.4016193369270624e-06
aF1.4016193369270624e-06
aF1.4016193368715513e-06
aF1.8688257824583943e-06
aF1.4016193369270624e-06
aF1.1671000230140116e-06
aF7.2065830858392133e-08
aF4.3605934929580314e-07
aF1.154274748005335e-07
aF6.8462539282165835e-07
aF1.4016193368715513e-06
aF1.4016193369270624e-06
aF1.4016193369270624e-06
aF2.4917677100000368e-06
aF1.8688257825000276e-06
aF1.8297392302413229e-06
aF1.6733930209289483e-06
aF1.8688257825139054e-06
aF2.1057880058572565e-06
aF1.9787567107076853e-07
aF1.5952199162727609e-06
aF1.8688257824583943e-06
aF1.8688257825139054e-06
aF1.8688257824583943e-06
aF1.4016193368715513e-06
aF1.4016193369270624e-06
aF1.4016193368715513e-06
aF1.4016193368715513e-06
aF1.8688257824583943e-06
aF2.3268713178481448e-07
aF8.2570341763954502e-07
aF1.4016193368715513e-06
aF1.4016193368715513e-06
aF1.8688257825139054e-06
aF1.4016193368715513e-06
aF1.4016193369270624e-06
aF1.4016193368784902e-06
aF1.4016193369270624e-06
aF1.8688257824583943e-06
aF2.3268713178481448e-07
aF8.0677086883307325e-07
aF1.4016193368715513e-06
aF1.4016193369270624e-06
aF1.8688257825069665e-06
aF1.4016193369270624e-06
aF1.2745880418885136e-06
aF1.4016193369270624e-06
aF1.4016193368715513e-06
aF1.805310134994631e-06
aF1.6917148426554007e-07
aF1.1671000230001338e-06
aF1.4016193368715513e-06
aF1.4016193368715513e-06
aF1.8688257824583943e-06
aF1.4016193369270624e-06
aF7.4325522134155442e-07
aF3.7804024816123771e-07
aF9.6189562337478662e-07
aF6.5469975130127978e-07
aF3.3406787680601013e-07
aF1.3576469655163237e-06
aF1.4016193369270624e-06
aF1.4016193369270624e-06
asg15
F-5.0149809660670499
sg16
I-1
sg17
(lp35
F-0.358321917411212
aF0.38901005787668252
aF-0.62121758173808717
aF0.88558014556445164
aF-0.018448554931937197
aF0.56852986558814811
aF0.64544553594731879
aF-0.70054296264761395
aF0.11728567302545509
aF-0.43444170423931106
aF-0.86842062426930233
aF0.3972518657213735
aF-0.7314272389337888
aF-0.90178890098812292
aF0.23296738900142541
aF0.21720321065310322
aF-0.47870405243852754
aF0.69586908832634831
aF-0.49407639836402018
aF0.50991902056312943
aF-0.71269254272938343
aF0.21012417560112057
aF-0.16702030751185443
aF0.37766904303490106
aF0.18625714376431224
aF-0.54162653228437463
aF-0.61962615369859997
aF0.062128052150529439
aF-0.14406162813331641
aF0.73874785225956452
aF-0.27085988753761814
aF-0.42263988939774766
aF0.43714932738152562
aF0.88246514454096636
aF0.51582741926070641
aF-0.62163712173465069
aF0.99705441062803457
aF0.83028959549123527
aF0.58795847810126212
aF-0.29822348469731641
aF-0.5433787170446186
aF0.96918110006201919
aF-0.40063338051084274
aF-0.93747059602805594
aF-0.78493910701205927
aF0.052065961361412658
aF0.89384776482180128
aF-0.21927962720703309
aF-0.57114680642717586
aF0.90927858080442392
aF-0.32893140332608128
aF-0.097037036827614692
aF0.89784398085665351
aF-0.50294210792099925
aF0.15638887945810509
aF-0.71111648666286287
aF-0.28646468339286352
aF-0.90465862505728212
aF-0.69548471993815142
aF0.36151553364147337
aF0.70152308065092128
aF0.45244662413124437
aF0.69466945887765175
aF-0.28658811731128453
aF0.13866392393380902
aF0.81254033385820001
aF0.78630398646252908
aF0.57595534980340191
aF-0.20068878528750317
aF0.48593451938715138
aF-0.25432697471878318
aF-0.22599255649846234
aF-0.77996881460696832
aF0.028266800433833155
aF-0.80449035181278639
aF0.88859810907327186
aF-0.67555605287354314
aF-0.25619881850005227
aF0.41400324905000407
aF-0.85048959695541915
aF-0.061058615865670587
aF-0.86386483346775855
aF-0.67427667279740011
aF-0.654512075528911
aF0.068144194997044216
aF-0.39675288880560583
aF-0.59702617559479376
aF-0.081102971266102872
aF-0.30658812039275163
aF-0.28739941102154254
aF-0.70290959018202115
aF0.64093083358965175
aF-0.10057230420820358
aF-0.38334133525193748
aF-0.69306832708295518
aF0.78012957014520901
aF-0.95278667314041787
aF-0.88833634666926853
aF-0.86111703560305553
aF0.65928820349431039
asg7
F2.4917677100051698e-05
sg19
F0.66732188416629057
sbag1
(g10
g3
NtRp36
(dp37
g13
(lp38
F1.1358262645755346e-05
aF8.5186969843720206e-06
aF7.0933463778288797e-06
aF1.9765604108989976e-07
aF1.1942879105664161e-06
aF1.5923838807309354e-06
aF2.4108469243167008e-06
aF8.5186969843720206e-06
aF8.5186969843720206e-06
aF8.5186969843165095e-06
aF8.5186969843165095e-06
aF6.3890227382512599e-06
aF5.3200097833716598e-06
aF1.0606612911856494e-06
aF6.3890227382512599e-06
aF8.5186969843165095e-06
aF6.3890227381957487e-06
aF6.3890227382512599e-06
aF6.3890227382512599e-06
aF6.3890227382373821e-06
aF8.5186969843165095e-06
aF6.3890227382512599e-06
aF5.3200097833439042e-06
aF1.0606612911856494e-06
aF6.3890227381957487e-06
aF8.5186969843165095e-06
aF6.3890227382512599e-06
aF6.3890227382373821e-06
aF6.3890227381957487e-06
aF6.3890227381957487e-06
aF8.5186969843165095e-06
aF6.3890227381957487e-06
aF5.3200097833716598e-06
aF7.7113694924024756e-07
aF4.6518766865233374e-06
aF6.4920265906666039e-06
aF6.3890227381957487e-06
aF6.3890227381957487e-06
aF6.3890227381957487e-06
aF6.3890227381957487e-06
aF8.5186969843217136e-06
aF6.3890227381957487e-06
aF5.3200097833716598e-06
aF3.2849877262819405e-07
aF1.9876959629905322e-06
aF5.2615481371809381e-07
aF3.1207383396902877e-06
aF6.3890227381957487e-06
aF6.3890227381957487e-06
aF6.3890227381957487e-06
aF1.1358262645755346e-05
aF8.5186969843720206e-06
aF8.3405281584569835e-06
aF7.6278528552409242e-06
aF8.5186969843165095e-06
aF9.5988454907880438e-06
aF9.019796807230307e-07
aF7.2715152036051389e-06
aF8.5186969843165095e-06
aF8.5186969843720206e-06
aF8.5186969843165095e-06
aF6.3890227382512599e-06
aF6.3890227382373821e-06
aF6.3890227381957487e-06
aF6.3890227382512599e-06
aF8.5186969843165095e-06
aF1.0606612911301383e-06
aF3.7638164453457357e-06
aF6.3890227381957487e-06
aF6.3890227381957487e-06
aF8.5186969843720206e-06
aF6.3890227382512599e-06
aF6.3890227381957487e-06
aF6.3890227381957487e-06
aF6.3890227382512599e-06
aF8.5186969843165095e-06
aF1.0606612911301383e-06
aF3.6775159203417118e-06
aF6.3890227381957487e-06
aF6.3890227381957487e-06
aF8.5186969843720206e-06
aF6.3890227381957487e-06
aF5.809974054304945e-06
aF6.3890227382512599e-06
aF6.3890227381957487e-06
aF8.2291726424266187e-06
aF7.7113694924024756e-07
aF5.3200097833439042e-06
aF6.3890227381957487e-06
aF6.3890227382512599e-06
aF8.5186969843720206e-06
aF6.3890227382512599e-06
aF3.3879915784101877e-06
aF1.7232266121824935e-06
aF4.3846234478173152e-06
aF2.9843278324115374e-06
aF1.5227866831946102e-06
aF6.1885828092078654e-06
aF6.3890227381957487e-06
aF6.3890227381957487e-06
asg15
F4.4556510916093872
sg16
I-1
sg17
(lp39
F0.7797878015265054
aF-0.86338003453531253
aF0.93144485658641785
aF0.62429214607660721
aF0.41027818929998566
aF-0.016276865254309682
aF0.68534610361710446
aF-0.83297270556313929
aF0.53426414258776911
aF0.11396791316275663
aF0.34112779350017697
aF0.20829036462050016
aF0.50119383032384046
aF0.28279317535525922
aF0.20793056700271204
aF0.21765373390600412
aF-0.5183098192629767
aF0.42487498089998033
aF-0.40195086577187344
aF-0.12240374430468486
aF0.21649408761584135
aF-0.49790225184723713
aF0.085927831980357736
aF-0.036965473121885487
aF0.65371234444291104
aF0.18302589934874344
aF0.40795103869006394
aF-0.068837084787747721
aF-0.9122896402115438
aF-0.72220177257943841
aF-0.16260087743972682
aF-0.64271033064454863
aF-0.66482527502709599
aF-0.14370202746408431
aF0.75309862001184424
aF-0.007770518932175373
aF0.85857471300569788
aF0.55469608014187299
aF-0.87661170160079716
aF0.80388160407762543
aF0.0059286537814667237
aF-0.70462857008730306
aF0.33096612668660219
aF-0.68479389632154464
aF-0.45761412887566005
aF0.78818174825676135
aF0.15401718516914181
aF-0.5111283338220034
aF0.80111458526314328
aF-0.80549238637422105
aF0.48512418314530054
aF-0.54373375446751726
aF0.73571740626093129
aF0.83764296547977879
aF-0.34347244307116398
aF0.83195389926873708
aF-0.69957318782841693
aF-0.079403819434135228
aF-0.3675235874154742
aF0.58118845532099284
aF0.09662031510363929
aF-0.19655005272302123
aF-0.12189601794674046
aF1.0202345505424617
aF0.25434522127738801
aF-0.44604000939983651
aF-0.58605847371873743
aF0.35719402191681865
aF0.67958238403367488
aF0.72247487132292354
aF-0.5953967629822664
aF0.18092947865299341
aF0.61304783484058123
aF-0.83643624929727745
aF-0.41101004493002646
aF-0.43247444982120981
aF0.90974681766201071
aF-0.74434894861268608
aF0.59094230634129208
aF-0.61721504983902509
aF0.70668369446611867
aF0.64022533051016917
aF0.9876710076012849
aF0.36803009605145598
aF-0.98135872420960402
aF-0.58881422951784235
aF0.36318231690189434
aF0.09676503909894546
aF0.60632145174018659
aF-0.40184805177755012
aF0.77436391044218811
aF0.33647106494718637
aF-0.10661946366690982
aF0.15898963508405445
aF0.38704645236690438
aF-0.54485899554370187
aF-0.60956044124959063
aF0.81997965856689947
aF-0.79686300449864123
aF1.0173049005437087
asg7
F0.00011358262645762626
sg19
F-0.038550744872519499
sbag1
(g10
g3
NtRp40
(dp41
g13
(lp42
F-1.1522634197985932e-06
aF-8.6419756484268362e-07
aF-7.1959980241231847e-07
aF-2.0051642846130591e-08
aF-1.2115710959492709e-07
aF-1.6154281279323612e-07
aF-2.4457355918272583e-07
aF-8.6419756484268362e-07
aF-8.6419756484268362e-07
aF-8.6419756484268362e-07
aF-8.6419756484268362e-07
aF-6.4814817368752387e-07
aF-5.396998517537277e-07
aF-1.0760106938789704e-07
aF-6.4814817363201271e-07
aF-8.6419756484268362e-07
aF-6.4814817368752387e-07
aF-6.4814817363201271e-07
aF-6.4814817363201271e-07
aF-6.4814817363201271e-07
aF-8.6419756484268362e-07
aF-6.4814817363201271e-07
aF-5.3969985178148328e-07
aF-1.0760106938789704e-07
aF-6.4814817363548216e-07
aF-8.6419756484268362e-07
aF-6.4814817368752387e-07
aF-6.4814817368752387e-07
aF-6.4814817368752387e-07
aF-6.4814817368752387e-07
aF-8.6419756484268362e-07
aF-6.4814817363201271e-07
aF-5.3969985180923885e-07
aF-7.8229648869942991e-08
aF-4.7191965060755514e-07
aF-6.5859762131414978e-07
aF-6.4814817368752387e-07
aF-6.4814817363548216e-07
aF-6.4814817363201271e-07
aF-6.4814817363201271e-07
aF-8.6419756484268362e-07
aF-6.4814817368752387e-07
aF-5.3969985177367702e-07
aF-3.3325265547112792e-08
aF-2.016460984854973e-07
aF-5.3376908393243383e-08
aF-3.1659002297512728e-07
aF-6.4814817363201271e-07
aF-6.4814817368752387e-07
aF-6.4814817368752387e-07
aF-1.1522634197902448e-06
aF-8.6419756484268362e-07
aF-8.4612284453888797e-07
aF-7.7382396329594982e-07
aF-8.6419756484268362e-07
aF-9.7377555674516003e-07
aF-9.1503271626436344e-08
aF-7.3767452267448075e-07
aF-8.6419756484268362e-07
aF-8.6419756484268362e-07
aF-8.6419756484962251e-07
aF-6.4814817363201271e-07
aF-6.4814817363201271e-07
aF-6.4814817368752387e-07
aF-6.4814817363201271e-07
aF-8.6419756484268362e-07
aF-1.0760106938789704e-07
aF-3.818284665599303e-07
aF-6.4814817368752387e-07
aF-6.4814817368752387e-07
aF-8.6419756484268362e-07
aF-6.4814817363201271e-07
aF-6.4814817368752387e-07
aF-6.4814817368752387e-07
aF-6.4814817363201271e-07
aF-8.6419756484268362e-07
aF-1.0760106936014147e-07
aF-3.7307352390714144e-07
aF-6.4814817363895161e-07
aF-6.4814817368752387e-07
aF-8.6419756484268362e-07
aF-6.4814817363201271e-07
aF-5.8940533265161577e-07
aF-6.4814817368752387e-07
aF-6.4814817368752387e-07
aF-8.3482614432472957e-07
aF-7.8229648869942991e-08
aF-5.396998517537277e-07
aF-6.4814817368752387e-07
aF-6.4814817368752387e-07
aF-8.6419756484268362e-07
aF-6.4814817363201271e-07
aF-3.4370210344469854e-07
aF-1.7481643554972948e-07
aF-4.4480757016573946e-07
aF-3.0275156515102708e-07
aF-1.5448237516979546e-07
aF-6.278141132520787e-07
aF-6.4814817363201271e-07
aF-6.4814817363201271e-07
asg15
F4.5859997714962164
sg16
I-1
sg17
(lp43
F-0.00078148750677463884
aF0.24571362272665107
aF-0.53542620536060104
aF-0.028744995049754023
aF-0.18776563331276142
aF0.95675600199449329
aF1.0019374105933323
aF0.65936706666086753
aF0.43740662116276174
aF0.78767803420642102
aF-0.64634264989016443
aF-0.79545998512967664
aF-0.35222481928752924
aF-0.52534257066330881
aF-0.49417831260267903
aF-0.15673125479189348
aF0.73413053884971413
aF0.079260550819573783
aF0.42911077329369718
aF0.1024171101306395
aF0.69946840421067591
aF0.21327438773655141
aF0.23939569012156484
aF-0.86357530836361518
aF-0.022541191882847905
aF-0.33051749724084384
aF-0.89550926629095373
aF-0.8050451956701471
aF0.53824011272727912
aF-0.92832293233011653
aF-0.561474490697078
aF-0.066141780731168581
aF-0.65422647212415941
aF0.76169727898881479
aF-0.23460402635253447
aF0.12412934429464853
aF0.70639334686712285
aF-0.026289375252791694
aF0.42087060232667706
aF-0.2661700816399033
aF-0.38319301572376141
aF-0.64456782437433779
aF-0.004498077609822731
aF-0.30153805471661566
aF-0.6317922172963617
aF0.48712269820262821
aF0.51917299016953533
aF-0.11091804613900624
aF0.57170015764054738
aF0.7019853763558892
aF0.71229510009983532
aF0.51975679586296042
aF0.078236187351637426
aF-0.022042204492754219
aF-0.7775945870405504
aF0.84317439629638269
aF-0.97235925390395406
aF0.055808541793073055
aF0.45872034991929944
aF0.35105864676300602
aF-0.035304850169375818
aF0.0784332033436696
aF0.29691631651058575
aF0.96120676616843825
aF0.49820777876167505
aF-0.30556134633292026
aF0.65571583543984124
aF0.045044212208121562
aF0.75748805631057459
aF-0.52681963265694742
aF0.27863329522238101
aF0.39129649539472755
aF-0.89546849633814452
aF-0.84581448214061183
aF0.26900677327099154
aF0.999347816327949
aF0.15170541150831962
aF-0.36659207488099843
aF0.043924369899593876
aF-0.52287706497595532
aF0.76045634892877267
aF0.10443269927109758
aF0.90758250412802821
aF-0.99502634043286253
aF0.73535687804389294
aF-0.5715517341094708
aF0.62051964299304996
aF0.46454250154974286
aF0.96356041042898122
aF-0.93443121755010883
aF-0.31139553836324085
aF-0.11466510972589361
aF0.72658046983467317
aF0.95624274105926799
aF0.25528459822537403
aF0.86588852708459108
aF-0.48733023421242078
aF0.99269985236058012
aF0.091168831848488258
aF-0.16856861951389299
asg7
F-1.1522634197986203e-05
sg19
F-0.3334805994657612
sbag1
(g10
g3
NtRp44
(dp45
g13
(lp46
F-5.8845566479337474e-06
aF-4.4134174859711273e-06
aF-3.6749633183508212e-06
aF-1.0240282399820444e-07
aF-6.1874382395465943e-07
aF-8.2499176534689411e-07
aF-1.2490259943820359e-06
aF-4.4134174859711273e-06
aF-4.4134174859711273e-06
aF-4.4134174859156161e-06
aF-4.4134174859711273e-06
aF-3.3100631144922232e-06
aF-2.7562224887700548e-06
aF-5.4951374579836898e-07
aF-3.3100631144922232e-06
aF-4.4134174859433717e-06
aF-3.3100631144367121e-06
aF-3.3100631144922232e-06
aF-3.3100631144922232e-06
aF-3.3100631144609982e-06
aF-4.4134174859468411e-06
aF-3.3100631144922232e-06
aF-2.7562224887978104e-06
aF-5.4951374579836898e-07
aF-3.3100631144644677e-06
aF-4.4134174859156161e-06
aF-3.3100631144922232e-06
aF-3.3100631144644677e-06
aF-3.3100631144644677e-06
aF-3.3100631144922232e-06
aF-4.4134174859156161e-06
aF-3.3100631144575288e-06
aF-2.7562224887978104e-06
aF-3.9951524300960162e-07
aF-2.4100720976694134e-06
aF-3.3634279664185307e-06
aF-3.3100631144922232e-06
aF-3.3100631144922232e-06
aF-3.3100631144922232e-06
aF-3.3100631144644677e-06
aF-4.4134174859433717e-06
aF-3.3100631144922232e-06
aF-2.7562224887700548e-06
aF-1.7019060893908033e-07
aF-1.0297974133849364e-06
aF-2.7259343293728477e-07
aF-1.616810784865752e-06
aF-3.3100631144367121e-06
aF-3.3100631144922232e-06
aF-3.3100631144922232e-06
aF-5.8845566479059919e-06
aF-4.4134174859156161e-06
aF-4.3211107150220585e-06
aF-3.9518836312257832e-06
aF-4.4134174859711273e-06
aF-4.9730272848602652e-06
aF-4.673030279123136e-07
aF-3.7672700893276456e-06
aF-4.4134174859711273e-06
aF-4.4134174859156161e-06
aF-4.4134174859711273e-06
aF-3.3100631144644677e-06
aF-3.3100631144644677e-06
aF-3.3100631144644677e-06
aF-3.3100631144367121e-06
aF-4.4134174859156161e-06
aF-5.4951374578449119e-07
aF-1.9499805362643841e-06
aF-3.3100631144922232e-06
aF-3.3100631144922232e-06
aF-4.4134174859156161e-06
aF-3.3100631144922232e-06
aF-3.3100631144922232e-06
aF-3.3100631144922232e-06
aF-3.3100631144922232e-06
aF-4.4134174859711273e-06
aF-5.4951374578449119e-07
aF-1.9052694441024087e-06
aF-3.3100631144367121e-06
aF-3.3100631144367121e-06
aF-4.4134174859711273e-06
aF-3.3100631144575288e-06
aF-3.0100661088661163e-06
aF-3.3100631144367121e-06
aF-3.3100631144367121e-06
aF-4.2634189831858293e-06
aF-3.9951524299919328e-07
aF-2.7562224887700548e-06
aF-3.3100631144644677e-06
aF-3.3100631144367121e-06
aF-4.4134174859156161e-06
aF-3.3100631144922232e-06
aF-1.7552709412615997e-06
aF-8.9277955028777001e-07
aF-2.2716119412735658e-06
aF-1.5461384134107803e-06
aF-7.8893443294925092e-07
aF-3.2062179971537041e-06
aF-3.3100631144922232e-06
aF-3.3100631144922232e-06
asg15
F4.0653451274530461
sg16
I-1
sg17
(lp47
F0.098761159847793781
aF0.37714442563013195
aF0.19696884867186129
aF0.73813744122659397
aF-0.77434195539296402
aF-0.10426705983110782
aF-0.12386349221003833
aF-0.28255418759952816
aF-0.46143023794960714
aF-0.73084040340658241
aF0.38300307331299122
aF-0.55282340462055812
aF0.22482767805051224
aF0.042722250922212351
aF0.52952526272526401
aF0.048183721298368759
aF-0.46121000936590623
aF0.55896250563417482
aF0.75912006667628684
aF-0.020758653818798024
aF0.030798917574709046
aF-0.51898118903003632
aF-0.66022074365722538
aF-0.048013070237607799
aF0.23628670710571462
aF-0.63257848534334749
aF0.95021327908280784
aF0.22225221301685172
aF0.15584527951323129
aF-0.59215927458012241
aF-0.70866023547830037
aF-0.051320353607569931
aF-0.84486214720459851
aF-0.027329174328319866
aF-0.60390844546948741
aF-0.10974099529383055
aF0.74219286659134365
aF0.53549075934496215
aF0.94629190441704358
aF0.1613663321402557
aF-0.20940313625434476
aF-0.7227388738451509
aF0.209253389703243
aF-0.10430117139488027
aF-0.10385867129677824
aF0.75644778434191806
aF0.49521449822362218
aF-0.49187266941860225
aF-0.57295964269762256
aF-0.99013841503254485
aF0.30592272213933436
aF0.7321201156488607
aF0.64722972070867602
aF-0.80919476429252002
aF-0.27184281946756983
aF-0.56457963774655628
aF-0.18509116051107252
aF-0.52761075800362811
aF0.2667934188562664
aF0.50657228863645043
aF0.49212422454754878
aF-0.1247411890978979
aF-0.13513674190906488
aF0.1738641689454514
aF0.34887640293841599
aF0.72506975367280213
aF0.36407878274923905
aF0.90681802985114424
aF0.58533088787020404
aF-0.53902188113458827
aF0.81795140178370562
aF-0.5034912492599809
aF-0.64034374870721056
aF-0.82591722765448417
aF-0.51673223075496488
aF0.35599328838623912
aF-0.34665094911600014
aF0.91866934440655568
aF0.40638710270840472
aF0.35510579807759868
aF-0.33170531845464191
aF0.057177294782586589
aF-0.39182539281106304
aF0.3859184786867253
aF0.41283092269089999
aF0.96627865679715674
aF0.38041494102479495
aF0.18319980148388437
aF0.06554138914214333
aF-0.25165343097555892
aF0.72425711568614071
aF0.89814091656666928
aF0.63569730875122765
aF-0.68323843487156644
aF-0.46772498165217258
aF0.74094061538085676
aF0.21579042085134398
aF0.19466098402015353
aF0.67645568219795427
aF0.93075880747830453
asg7
F-5.8845566479280798e-05
sg19
F-0.9373220953759035
sbag1
(g10
g3
NtRp48
(dp49
g13
(lp50
F-7.1043093777811706e-06
aF-5.3282320333636335e-06
aF-4.4367108564813407e-06
aF-1.2362891321782143e-07
aF-7.4699723606741486e-07
aF-9.95996314701042e-07
aF-1.50792449049586e-06
aF-5.3282320333081223e-06
aF-5.3282320333636335e-06
aF-5.3282320333081223e-06
aF-5.3282320333636335e-06
aF-3.9961740249949695e-06
aF-3.3275331423610055e-06
aF-6.6341712567918876e-07
aF-3.9961740250227251e-06
aF-5.3282320333081223e-06
aF-3.9961740250227251e-06
aF-3.9961740250227251e-06
aF-3.9961740249949695e-06
aF-3.9961740250227251e-06
aF-5.3282320333636335e-06
aF-3.9961740249949695e-06
aF-3.3275331423610055e-06
aF-6.6341712572082212e-07
aF-3.9961740250227251e-06
aF-5.3282320333358779e-06
aF-3.9961740249949695e-06
aF-3.9961740249949695e-06
aF-3.9961740250227251e-06
aF-3.9961740249949695e-06
aF-5.3282320333358779e-06
aF-3.9961740250227251e-06
aF-3.3275331423610055e-06
aF-4.8232688668048418e-07
aF-2.9096325907529419e-06
aF-4.0606003600673901e-06
aF-3.9961740250019084e-06
aF-3.9961740249949695e-06
aF-3.9961740250227251e-06
aF-3.9961740249949695e-06
aF-5.3282320333081223e-06
aF-3.9961740250227251e-06
aF-3.3275331423887611e-06
aF-2.0546777124152982e-07
aF-1.2432541411089293e-06
aF-3.290966844038401e-07
aF-1.9519438265724887e-06
aF-3.9961740250227251e-06
aF-3.9961740250227251e-06
aF-3.9961740250019084e-06
aF-7.1043093777787853e-06
aF-5.3282320333081223e-06
aF-5.2167918862255913e-06
aF-4.7710312978122005e-06
aF-5.3282320333081223e-06
aF-6.0038379251503571e-06
aF-5.6416574467643699e-07
aF-4.5481510035916273e-06
aF-5.3282320333358779e-06
aF-5.3282320333081223e-06
aF-5.3282320333358779e-06
aF-3.9961740250227251e-06
aF-3.9961740250227251e-06
aF-3.9961740250227251e-06
aF-3.9961740250227251e-06
aF-5.3282320333636335e-06
aF-6.6341712567918876e-07
aF-2.3541731075660266e-06
aF-3.9961740250227251e-06
aF-3.9961740250227251e-06
aF-5.3282320333081223e-06
aF-3.9961740250227251e-06
aF-3.9961740250227251e-06
aF-3.9961740250227251e-06
aF-3.9961740250227251e-06
aF-5.3282320333636335e-06
aF-6.6341712573469991e-07
aF-2.3001942862856291e-06
aF-3.9961740250227251e-06
aF-3.9961740250227251e-06
aF-5.3282320333636335e-06
aF-3.9961740250227251e-06
aF-3.6339935469698048e-06
aF-3.9961740250227251e-06
aF-3.9961740250227251e-06
aF-5.1471417942816622e-06
aF-4.823268866527286e-07
aF-3.3275331423610055e-06
aF-3.9961740249949695e-06
aF-3.9961740250227251e-06
aF-5.3282320333636335e-06
aF-3.9961740249949695e-06
aF-2.1191040472379186e-06
aF-1.077835172752506e-06
aF-2.7424723701013898e-06
aF-1.8666224639585227e-06
aF-9.5246500725343353e-07
aF-3.8708038595097749e-06
aF-3.9961740250227251e-06
aF-3.9961740250227251e-06
asg15
F1.1245332664012357
sg16
I-1
sg17
(lp51
F-0.13779589713898949
aF-0.6984323674487205
aF-0.56422223354297152
aF-0.70990338689660271
aF-1.1380458175420489
aF-0.46892212682973
aF0.42038531492313969
aF0.30746151146415496
aF-0.85387969857621893
aF-0.33995584380045307
aF0.51268134967110912
aF0.2069270983198214
aF1.0071899159449753
aF0.77854530624445761
aF-0.56053808834254215
aF-0.34818761915229196
aF0.83892340646282326
aF0.51591195755467845
aF-0.12450618309719029
aF0.5489288525275704
aF0.76626967255229905
aF0.13076759474230246
aF0.77737546019068904
aF-0.03359306621200496
aF0.83046622165187189
aF-0.19018260125302089
aF0.22237354177519136
aF-0.23714036690051471
aF-0.36983747030687764
aF-0.14265118795689199
aF0.12886695986138877
aF-0.49144668697032279
aF0.47711070152442536
aF0.12911312386154414
aF-0.92903584746223455
aF-0.63776528400500854
aF-0.022800601116902918
aF-0.20597961096679901
aF-0.75244121505506034
aF-0.21090166347794445
aF-0.28191009349328189
aF0.97848786391810427
aF-0.2068009564610305
aF0.74916678626911193
aF-0.16514988668667605
aF0.4073673741275286
aF-0.39694714979523388
aF0.32383652004707891
aF0.55449301421225261
aF-0.023698388128154255
aF0.001502471598545592
aF0.47936526631386966
aF-0.15261131651597176
aF0.21559861635180372
aF0.49696465476084606
aF-0.50784097778840021
aF0.520609388516174
aF-1.1787444740405402
aF-0.10821384938990196
aF-0.44260020706907599
aF-0.10967772924605902
aF-0.89843976772413758
aF-0.68418477529874355
aF1.4873631560068226
aF-1.226191912146366
aF-1.1984806324985051
aF-0.98503315627988164
aF-0.93494392377457147
aF0.89603951493669887
aF0.94898958686536727
aF0.26910688603156951
aF-0.30866131389732665
aF0.69735747209458676
aF0.66699585464708366
aF0.873436027113902
aF-1.061849181608991
aF0.3951351977725493
aF-0.0013986450687111147
aF-0.42968053108263948
aF-0.55653727942095554
aF0.52474902412825686
aF0.8979284858453016
aF1.0386085993261662
aF1.5962026807613927
aF-0.67576485874405889
aF0.43261238783042982
aF-0.6167119209460733
aF0.93088182894747251
aF0.096743223520365768
aF0.89601643083758642
aF-0.98208802903636694
aF0.085982741204919694
aF-0.20549731475645427
aF-0.17693436073292912
aF0.056382563757947105
aF0.13193607909782756
aF-0.13330633045581552
aF0.092951982238402703
aF0.28694383644195942
aF0.7217317878553291
asg7
F-7.1043093777787975e-05
sg19
F0.046250826598706642
sbag1
(g10
g3
NtRp52
(dp53
g13
(lp54
F-0.00015624361215593741
aF-0.00011718270911698081
aF-9.7575667591498494e-05
aF-2.7189452116438417e-06
aF-1.6428556278147433e-05
aF-2.1904741704270592e-05
aF-3.316347258017216e-05
aF-0.00011718270911686979
aF-0.00011718270911698081
aF-0.00011718270911698081
aF-0.00011718270911698081
aF-8.7887031837707852e-05
aF-7.3181750693651626e-05
aF-1.4590396135161221e-05
aF-8.7887031837707852e-05
aF-0.00011718270911696693
aF-8.7887031837707852e-05
aF-8.7887031837707852e-05
aF-8.7887031837735607e-05
aF-8.7887031837707852e-05
aF-0.00011718270911696693
aF-8.7887031837707852e-05
aF-7.318175069362387e-05
aF-1.4590396135161221e-05
aF-8.7887031837735607e-05
aF-0.00011718270911695305
aF-8.7887031837707852e-05
aF-8.7887031837707852e-05
aF-8.788703183772173e-05
aF-8.7887031837707852e-05
aF-0.00011718270911698081
aF-8.7887031837707852e-05
aF-7.3181750693596115e-05
aF-1.0607715825283748e-05
aF-6.3990949978578321e-05
aF-8.930394694794952e-05
aF-8.7887031837707852e-05
aF-8.7887031837707852e-05
aF-8.7887031837707852e-05
aF-8.7887031837707852e-05
aF-0.00011718270911698081
aF-8.7887031837707852e-05
aF-7.318175069362387e-05
aF-4.5188103515725331e-06
aF-2.7342632127280719e-05
aF-7.2377555631053525e-06
aF-4.2928698339911309e-05
aF-8.788703183772173e-05
aF-8.7887031837735607e-05
aF-8.788703183772173e-05
aF-0.00015624361215604843
aF-0.00011718270911698081
aF-0.00011473182892629552
aF-0.00010492830816355436
aF-0.00011718270911698081
aF-0.00013204117027297221
aF-1.2407580965323461e-05
aF-0.00010002654778218378
aF-0.00011718270911698081
aF-0.00011718270911698081
aF-0.00011718270911695305
aF-8.7887031837735607e-05
aF-8.7887031837707852e-05
aF-8.7887031837707852e-05
aF-8.7887031837707852e-05
aF-0.00011718270911698081
aF-1.4590396135161221e-05
aF-5.1774844028185107e-05
aF-8.7887031837707852e-05
aF-8.7887031837707852e-05
aF-0.00011718270911698081
aF-8.7887031837707852e-05
aF-8.7887031837707852e-05
aF-8.7887031837707852e-05
aF-8.7887031837707852e-05
aF-0.00011718270911698081
aF-1.4590396135147343e-05
aF-5.0587698935733449e-05
aF-8.7887031837707852e-05
aF-8.7887031837707852e-05
aF-0.00011718270911698081
aF-8.7887031837707852e-05
aF-7.9921671218008417e-05
aF-8.7887031837707852e-05
aF-8.7887031837707852e-05
aF-0.00011320002880710334
aF-1.0607715825283748e-05
aF-7.3181750693596115e-05
aF-8.7887031837707852e-05
aF-8.7887031837707852e-05
aF-0.00011718270911696693
aF-8.7887031837735607e-05
aF-4.6605018625855976e-05
aF-2.3704606844199283e-05
aF-6.0314629692581612e-05
aF-4.1052243193923088e-05
aF-2.0947366629719966e-05
aF-8.5129791623228535e-05
aF-8.7887031837735607e-05
aF-8.7887031837707852e-05
asg15
F-2.0511508504358433
sg16
I-1
sg17
(lp55
F-0.82308074666321052
aF-0.32490139349365582
aF0.81432255281584598
aF1.678183188452256
aF-0.46976641722081958
aF-0.60680868947756106
aF-0.24985372359152061
aF1.0732699753880475
aF-0.62890099050720538
aF0.41589890666113266
aF-0.7507432003897403
aF-0.74228975114135987
aF0.36522876725204223
aF0.83799225602737926
aF-0.99611133391331386
aF0.04327836074514689
aF-1.1396015177020771
aF0.70128926651654022
aF0.12754664079025815
aF0.53665623327768841
aF0.12085409736059501
aF0.93399979575396419
aF0.21872595249746934
aF0.52527887593803679
aF0.15974184590027912
aF0.22711453544403673
aF0.372593880437953
aF0.81778818031731393
aF0.11665604325683437
aF0.97845657776171679
aF-0.55765741577929195
aF-0.62801813945478424
aF-0.72720112849814145
aF0.67698454965238242
aF0.0056787902885792763
aF0.40122238135608085
aF-0.48347073032968335
aF-1.0446950828125328
aF-0.32939604622647756
aF-0.7520640781102671
aF-0.31677436503854023
aF-0.28922126682240745
aF-0.23422820683691606
aF-0.64004550371625368
aF0.29985551521852222
aF0.5065355172559729
aF-0.21004732114270339
aF-0.065509161330289473
aF0.24512112119224169
aF-0.033118378075525992
aF1.0255767263786049
aF0.79532816044529553
aF-0.69324855799533169
aF-1.739099037175329
aF0.29510089568196124
aF-0.0084048860691228224
aF-0.79919838351784589
aF-0.66455720610318247
aF0.27870372074952937
aF0.27175393235611606
aF0.1440982251780695
aF0.24424733298454557
aF-0.80187209219165656
aF-0.65758383746852622
aF-0.83657868833643134
aF0.45559072513221244
aF-0.33585558368906726
aF-0.62732417455935174
aF0.58978406337572331
aF0.31447411647079981
aF-0.74819695823999499
aF0.35439265822923272
aF-0.82269122463132049
aF-1.3614856702289559
aF0.49387230045606884
aF-0.63965709379478963
aF0.082642066068791389
aF0.51153264323776637
aF-0.78292683213164038
aF-0.7951014107402633
aF-0.32441487443328715
aF-0.94398513038898779
aF0.42567844723969056
aF0.68822545795635492
aF0.94922825882602369
aF0.59689324636787555
aF-1.1592535577933121
aF-0.74384083275158319
aF0.62900140740103494
aF0.65014793211183719
aF-0.020907816645062114
aF0.24650682970624513
aF1.1758935346753718
aF0.79528299882238918
aF0.52341832019839452
aF-0.063498073663982857
aF0.34702331694104221
aF0.83852663550002482
aF0.13284294443544112
aF-0.45400351649705517
asg7
F-0.0015624361215595378
sg19
F-0.23048055989608698
sbag1
(g10
g3
NtRp56
(dp57
g13
(lp58
F-9.7439918208541698e-06
aF-7.3079938656128718e-06
aF-6.0852184214921223e-06
aF-1.6956456350136762e-07
aF-1.02455208117469e-06
aF-1.3660694415384977e-06
aF-2.0682100286828486e-06
aF-7.3079938656128718e-06
aF-7.3079938656128718e-06
aF-7.3079938656406274e-06
aF-7.3079938656128718e-06
aF-5.4809953992374094e-06
aF-4.5639138160913362e-06
aF-9.0991688328490028e-07
aF-5.4809953992096538e-06
aF-7.3079938656128718e-06
aF-5.4809953992096538e-06
aF-5.4809953992096538e-06
aF-5.4809953992096538e-06
aF-5.4809953992096538e-06
aF-7.3079938656406274e-06
aF-5.4809953992096538e-06
aF-4.5639138160843973e-06
aF-9.0991688317387798e-07
aF-5.4809953993206761e-06
aF-7.3079938656128718e-06
aF-5.4809953992096538e-06
aF-5.4809953992096538e-06
aF-5.4809953992096538e-06
aF-5.4809953992096538e-06
aF-7.3079938656336885e-06
aF-5.4809953992270011e-06
aF-4.5639138160913362e-06
aF-6.6154062117185219e-07
aF-3.9907378266423876e-06
aF-5.5693600309325575e-06
aF-5.4809953992261337e-06
aF-5.4809953992374094e-06
aF-5.4809953992096538e-06
aF-5.4809953992374094e-06
aF-7.3079938656354232e-06
aF-5.4809953992096538e-06
aF-4.5639138160913362e-06
aF-2.8181152811335153e-07
aF-1.7051985686244997e-06
aF-4.5137609172574145e-07
aF-2.6772095174099064e-06
aF-5.4809953992374094e-06
aF-5.4809953992096538e-06
aF-5.4809953992096538e-06
aF-9.7439918208541698e-06
aF-7.3079938656128718e-06
aF-7.155146935167167e-06
aF-6.54375921299577e-06
aF-7.3079938656406274e-06
aF-8.2346283819534349e-06
aF-7.7378758578383611e-07
aF-6.2380653519378271e-06
aF-7.3079938656128718e-06
aF-7.3079938656406274e-06
aF-7.3079938656406274e-06
aF-5.4809953992096538e-06
aF-5.4809953992096538e-06
aF-5.4809953993206761e-06
aF-5.4809953992096538e-06
aF-7.3079938656128718e-06
aF-9.0991688328490028e-07
aF-3.2288914072996222e-06
aF-5.4809953992374094e-06
aF-5.4809953992096538e-06
aF-7.3079938656128718e-06
aF-5.4809953992235316e-06
aF-5.4809953992096538e-06
aF-5.4809953992096538e-06
aF-5.4809953992096538e-06
aF-7.3079938656128718e-06
aF-9.0991688328490028e-07
aF-3.1548561753025339e-06
aF-5.4809953992096538e-06
aF-5.4809953992096538e-06
aF-7.3079938656128718e-06
aF-5.4809953992096538e-06
aF-4.9842428750390688e-06
aF-5.4809953992096538e-06
aF-5.4809953992374094e-06
aF-7.0596176034998237e-06
aF-6.6154062117185219e-07
aF-4.5639138160913362e-06
aF-5.4809953992096538e-06
aF-5.4809953992374094e-06
aF-7.3079938656128718e-06
aF-5.4809953992096538e-06
aF-2.9064799132172414e-06
aF-1.4783164061782372e-06
aF-3.7614674308350526e-06
aF-2.5601860862423109e-06
aF-1.3063636092880415e-06
aF-5.3090426023888471e-06
aF-5.4809953992096538e-06
aF-5.4809953992096538e-06
asg15
F-3.3846977438126418
sg16
I-1
sg17
(lp59
F0.22295382957700333
aF-0.58636731938532238
aF-0.58752399838810176
aF1.0279740135036417
aF0.38203795786940009
aF0.18317315370048443
aF0.70436351694556909
aF0.95401610932383585
aF-0.6735355961485282
aF-0.23765550097995802
aF0.84240065849070145
aF-0.16311406541099896
aF-0.59458166926487244
aF-0.8740491758440021
aF-0.26266152672438814
aF-1.1528225935569256
aF0.69238016358367604
aF-0.49435028616494492
aF-0.49790484668687685
aF0.54983551431176891
aF0.23321712502397962
aF0.83325887757019002
aF-0.044846344891081559
aF1.2002413266819929
aF-1.2627462899572122
aF-1.2563634666832852
aF-0.6972390238581091
aF0.74485981290580816
aF0.74765390480191163
aF-0.73314911833846985
aF-0.050361165405695546
aF0.0092664134717346143
aF0.14708165940274043
aF-0.41738774806901174
aF0.25494458178971535
aF0.96076175085414373
aF-0.0074487070065751906
aF-0.21519469484096482
aF-0.44156535959265653
aF0.21907129228684727
aF0.0073090241874079927
aF0.44651591364926779
aF-0.18346823652626479
aF0.74532548516656016
aF0.40701439402385781
aF0.88272409190801659
aF-0.96574948912313452
aF-0.16447236095696111
aF0.9245091916416025
aF0.9919810304278921
aF0.4015188566772554
aF0.48945990080590923
aF1.0168432563915761
aF0.38965549147938738
aF0.076000094366519944
aF0.52248552867214948
aF0.25807407453300457
aF0.69639479230708323
aF-0.41299769870867348
aF-0.10941284332309434
aF-0.20941463596106624
aF-0.57822559802588802
aF-0.38457653340579162
aF-1.0094706370329867
aF-0.92110185028826963
aF-1.8365620248245984
aF-0.57447517645535751
aF0.029466694378316314
aF-0.13909591532360391
aF-0.94819315972613871
aF0.28385713345670677
aF-0.114148921591138
aF0.45153717486682315
aF-0.70768288527926704
aF-0.94569788632407248
aF-1.0699766921984433
aF0.71333121666133892
aF-0.3952753020290582
aF-0.7717739554987314
aF0.27144848371173924
aF-0.75770957574682585
aF0.33838308118081328
aF-0.47780976789411772
aF-0.25442838383544514
aF0.17030292609387354
aF-0.78252081712754029
aF0.88079196690248751
aF0.71280239634448983
aF0.57383739900977171
aF-0.15876968216480361
aF0.52022764815116107
aF0.53040508332442482
aF-0.22826748670927197
aF-0.93800336287051866
aF0.16566316636184203
aF-1.4582185894019863
aF0.26348177621318486
aF0.09169924723036843
aF0.58567453059168939
aF0.33263110597458434
asg7
F-9.743991820846781e-05
sg19
F-0.061173866323169422
sbag1
(g10
g3
NtRp60
(dp61
g13
(lp62
F-0.00020977168652291933
aF-0.00015732876489216174
aF-0.00013100447481873001
aF-3.6504386625169083e-06
aF-2.2056875862319636e-05
aF-2.9409167816463189e-05
aF-4.4525068757073072e-05
aF-0.00015732876489216174
aF-0.00015732876489216174
aF-0.00015732876489216174
aF-0.00015732876489216174
aF-0.00011799657366912131
aF-9.8253356114019752e-05
aF-1.958897366793888e-05
aF-0.0001179965736690658
aF-0.00015732876489216174
aF-0.0001179965736690658
aF-0.00011799657366912001
aF-0.00011799657366912131
aF-0.00011799657366912131
aF-0.00015732876489215827
aF-0.00011799657366912131
aF-9.8253356114019752e-05
aF-1.958897366793888e-05
aF-0.0001179965736690658
aF-0.00015732876489215827
aF-0.0001179965736690658
aF-0.00011799657366912131
aF-0.00011799657366912131
aF-0.0001179965736690658
aF-0.00015732876489216174
aF-0.0001179965736690658
aF-9.8253356114019752e-05
aF-1.4241852246743569e-05
aF-8.5913845142088219e-05
aF-0.0001198989149439611
aF-0.0001179965736690658
aF-0.0001179965736690658
aF-0.0001179965736690658
aF-0.0001179965736690658
aF-0.00015732876489216174
aF-0.00011799657366912131
aF-9.8253356114019752e-05
aF-6.0669262278711944e-06
aF-3.6710045141497005e-05
aF-9.7173648904158583e-06
aF-5.7635799164734713e-05
aF-0.00011799657366912131
aF-0.0001179965736690658
aF-0.00011799657366912131
aF-0.00020977168652291933
aF-0.00015732876489216174
aF-0.00015403822863302441
aF-0.00014087608359614201
aF-0.00015732876489216174
aF-0.00017727764096345244
aF-1.6658339812111733e-05
aF-0.00013429501107786734
aF-0.00015732876489216174
aF-0.00015732876489216174
aF-0.00015732876489216174
aF-0.00011799657366912131
aF-0.0001179965736690658
aF-0.0001179965736690658
aF-0.0001179965736690658
aF-0.00015732876489216174
aF-1.958897366793888e-05
aF-6.9512578475205977e-05
aF-0.0001179965736690658
aF-0.00011799657366912131
aF-0.00015732876489216174
aF-0.00011799657366912131
aF-0.0001179965736690658
aF-0.00011799657366912131
aF-0.0001179965736690658
aF-0.00015732876489216174
aF-1.958897366793888e-05
aF-6.7918724974684597e-05
aF-0.00011799657366912131
aF-0.00011799657366912131
aF-0.00015732876489216174
aF-0.0001179965736690658
aF-0.0001073023308267862
aF-0.0001179965736690658
aF-0.0001179965736690658
aF-0.00015198164347099419
aF-1.4241852246771325e-05
aF-9.8253356114019752e-05
aF-0.0001179965736690658
aF-0.0001179965736690658
aF-0.00015732876489216174
aF-0.0001179965736690658
aF-6.2571603553496224e-05
aF-3.1825655381775841e-05
aF-8.0978040753354463e-05
aF-5.5116482341355244e-05
aF-2.8123802090163075e-05
aF-0.00011429472037749466
aF-0.0001179965736690658
aF-0.00011799657366912131
asg15
F0.15266602856818479
sg16
I-1
sg17
(lp63
F-0.60609131946972516
aF0.066573212292027506
aF-0.59170527125045758
aF0.43947152342309725
aF-0.85118560182684722
aF-0.66711750570730266
aF1.2044485192804819
aF-0.1028598394959009
aF-0.58541178910881453
aF-0.18254113184180484
aF0.50066101911122074
aF0.43107203191880089
aF0.6783650672478061
aF-0.30009377515822017
aF0.53081461475300729
aF0.074733914605481594
aF0.64026955574240196
aF0.0026167692042677374
aF-0.34258826830148376
aF0.35814572267841532
aF0.02316347313491662
aF-0.12007699848429576
aF0.36833109980162249
aF-0.44252338489957466
aF-0.6517548950031119
aF0.027841788292405675
aF0.52317879796803557
aF-0.36401113059330548
aF-0.50000565878193548
aF-0.55326198890392009
aF-0.79044971308055934
aF0.92676738187716667
aF-1.0006203476299884
aF-0.50139421140661999
aF-0.21358414033281681
aF0.23527565888916407
aF0.63305362999560411
aF-0.82695447427016733
aF-0.50019925890483741
aF0.98609115419417348
aF0.71809606995426167
aF0.28425932039289697
aF-0.44299130193742264
aF0.18370424694025753
aF-0.15917722066170831
aF-0.89506020506636608
aF-0.56895684463646834
aF-0.43208301796267129
aF-0.59335314540381412
aF-0.30199030457107784
aF0.87707404113318288
aF-0.76141673078334782
aF0.66801022102650265
aF-1.1386184320270103
aF-1.2086380160978198
aF0.17340967637349861
aF0.12444810731085104
aF-0.52176398758174569
aF-0.31287058861493666
aF-0.62489084223526581
aF0.88517737225147519
aF-0.24343237716172705
aF1.0700585476675331
aF0.54871721393898598
aF-0.6672487945858443
aF-1.0177145028285122
aF0.34736821165363713
aF0.4274994752746043
aF0.89232424401202559
aF-0.36844949201529181
aF-0.42008018399348546
aF-0.19725952056585677
aF-0.73348853542422277
aF0.15086862240085058
aF1.4517904540307869
aF0.67675736238262463
aF0.19279932380747519
aF0.047662166299651657
aF-0.26661350729746053
aF0.44829933501958014
aF-0.1744392963490726
aF0.80498693637099672
aF-0.27679348865446007
aF1.0838144664460705
aF1.0708754608042863
aF-0.20218475360027677
aF0.1986256700908649
aF-0.49519113581326418
aF-0.5279168094698703
aF0.63289053282825947
aF-0.51144258196630188
aF0.96914811110842658
aF0.71439508888331615
aF-0.080875409336600507
aF-0.72184972381059975
aF0.63077682962065407
aF-0.57868626948713153
aF0.72672897776250256
aF-0.53867257567245841
aF0.15905361624742581
asg7
F-0.0020977168652287978
sg19
F-0.45912732768479031
sbag1
(g10
g3
NtRp64
(dp65
g13
(lp66
F-5.8008635226369787e-05
aF-4.3506476419791218e-05
aF-3.6226961411034431e-05
aF-1.0094639953939222e-06
aF-6.0994373803913149e-06
aF-8.132583173892094e-06
aF-1.2312617182930197e-05
aF-4.3506476419763462e-05
aF-4.3506476419791218e-05
aF-4.3506476419791218e-05
aF-4.3506476419818974e-05
aF-3.2629857314891986e-05
aF-2.7170221058248067e-05
aF-5.4169828483385807e-06
aF-3.2629857314891986e-05
aF-4.3506476419818974e-05
aF-3.2629857314836475e-05
aF-3.2629857314891986e-05
aF-3.2629857314836475e-05
aF-3.2629857314836475e-05
aF-4.3506476419818974e-05
aF-3.2629857314836475e-05
aF-2.7170221058241129e-05
aF-5.4169828483524585e-06
aF-3.2629857314891986e-05
aF-4.3506476419763462e-05
aF-3.2629857314780963e-05
aF-3.2629857314836475e-05
aF-3.2629857314891986e-05
aF-3.2629857314836475e-05
aF-4.3506476419818974e-05
aF-3.2629857314891986e-05
aF-2.7170221058248067e-05
aF-3.9383313621965677e-06
aF-2.3757948397817863e-05
aF-3.3155916016658349e-05
aF-3.2629857314891986e-05
aF-3.2629857314836475e-05
aF-3.2629857314836475e-05
aF-3.2629857314836475e-05
aF-4.3506476419763462e-05
aF-3.2629857314891986e-05
aF-2.7170221058248067e-05
aF-1.6777007246782105e-06
aF-1.0151511164624427e-05
aF-2.6871647200721327e-06
aF-1.5938156884498511e-05
aF-3.2629857314836475e-05
aF-3.2629857314891986e-05
aF-3.2629857314891986e-05
aF-5.8008635226369787e-05
aF-4.3506476419791218e-05
aF-4.259653704369315e-05
aF-3.8956779539245368e-05
aF-4.3506476419763462e-05
aF-4.9022983887425653e-05
aF-4.6065680915363671e-06
aF-3.7136900787104743e-05
aF-4.3506476419818974e-05
aF-4.3506476419791218e-05
aF-4.3506476419791218e-05
aF-3.2629857314836475e-05
aF-3.2629857314836475e-05
aF-3.2629857314780963e-05
aF-3.2629857314780963e-05
aF-4.3506476419791218e-05
aF-5.4169828483385807e-06
aF-1.9222469320068214e-05
aF-3.2629857314836475e-05
aF-3.2629857314891986e-05
aF-4.3506476419818974e-05
aF-3.2629857314891986e-05
aF-3.2629857314836475e-05
aF-3.2629857314891986e-05
aF-3.2629857314891986e-05
aF-4.3506476419818974e-05
aF-5.4169828482830695e-06
aF-1.8781717434857015e-05
aF-3.2629857314836475e-05
aF-3.2629857314836475e-05
aF-4.3506476419763462e-05
aF-3.2629857314891986e-05
aF-2.9672554342496937e-05
aF-3.2629857314836475e-05
aF-3.2629857314891986e-05
aF-4.2027824933621449e-05
aF-3.9383313621826899e-06
aF-2.7170221058248067e-05
aF-3.2629857314843413e-05
aF-3.2629857314891986e-05
aF-4.3506476419818974e-05
aF-3.2629857314836475e-05
aF-1.7303065948659491e-05
aF-8.8008199032318934e-06
aF-2.2393039333712395e-05
aF-1.5241484549566309e-05
aF-7.7771381051250366e-06
aF-3.1606175516674107e-05
aF-3.2629857314780963e-05
aF-3.2629857314891986e-05
asg15
F-0.74119231359997362
sg16
I-1
sg17
(lp67
F-0.45399512059776614
aF-0.24598566472795177
aF-0.74500101920727502
aF-0.88768244429858212
aF0.54342449495919631
aF0.65704850752369359
aF-1.1018347310163348
aF-0.26441360693067967
aF-0.1892958370240668
aF-0.084651293097547889
aF-0.80066132019455727
aF0.75777881992188201
aF0.63102506946642622
aF0.43218542606237531
aF0.60518133956317322
aF-0.977717620453602
aF-0.25000606531124459
aF-0.58553652577190851
aF-0.47304954082224643
aF-0.13446276829033443
aF0.50716159927462601
aF-0.44891513094659047
aF0.019201326129508183
aF-0.12181600331822472
aF0.99950667749833222
aF0.35221204882853396
aF-1.5889826202640644
aF0.30136251124906654
aF-0.66866498083247405
aF0.28243348153369857
aF-0.84812227915118121
aF0.61989621834224939
aF-0.92333937354654783
aF-0.38531739919315305
aF0.92338291621010216
aF0.35022804108902228
aF-0.81435056587082011
aF-0.14469261883215548
aF-0.30769093363388728
aF0.21381104169746223
aF-0.31628316543090501
aF-0.61378218931769468
aF0.14193137634823894
aF-0.63597002652558288
aF0.18447362730606046
aF1.4231747272523871
aF-0.74725554437621566
aF0.39850049285824624
aF0.86277597685268104
aF0.9418173940316743
aF0.48749829415518264
aF-0.16171534298719434
aF0.30378376981199218
aF0.58878265444570455
aF-0.39654624127137289
aF-0.83360405260325732
aF0.82320772631979344
aF0.27659187047074929
aF0.86609758828234507
aF-0.12531309291855494
aF-0.035901293239357097
aF-0.0634001556913842
aF-0.14700098672055176
aF-1.0148116208920126
aF1.0283403318054838
aF-0.062167486699925265
aF0.38430664760404393
aF0.57190704289828331
aF-0.091406809933897729
aF0.79617423493620842
aF0.95509361044068875
aF-0.58241970036713697
aF0.48567804203602771
aF0.9135534546268268
aF-0.70439579255909857
aF0.50062877137540296
aF-1.1505487182363172
aF-0.64433001832187564
aF-0.49415939485788968
aF0.40147120549969567
aF-0.47647991138091489
aF-0.68431188488242944
aF-0.98843441650686936
aF-0.27070544469627811
aF-0.8185459740547385
aF0.40100175933660026
aF0.11753582445035322
aF-0.85433902346138901
aF-0.035422048042226713
aF0.80343313862219379
aF0.93246036207212535
aF0.19448152074574587
aF0.10939428691497567
aF-0.42035748846159482
aF0.17668652524133385
aF1.4014392230126047
aF-0.42043799051869057
aF0.56645243522307021
aF1.0107146975743233
aF0.72744572336058089
asg7
F-0.00058008635226383675
sg19
F0.85972995227369986
sbag1
(g10
g3
NtRp68
(dp69
g13
(lp70
F3.425511246879509e-07
aF2.569133435992299e-07
aF2.1392653570817544e-07
aF5.961061200210338e-09
aF3.6018243276814133e-08
aF4.8024324350581793e-08
aF7.2708155385292628e-08
aF2.5691334355065765e-07
aF2.5691334354371875e-07
aF2.5691334354371875e-07
aF2.5691334354371875e-07
aF1.926850076161557e-07
aF1.6044490180888715e-07
aF3.1988230064783352e-08
aF1.9268500765778906e-07
aF2.569133435992299e-07
aF1.9268500767166685e-07
aF1.9268500767166685e-07
aF1.9268500767166685e-07
aF1.926850076161557e-07
aF2.5691334354371875e-07
aF1.9268500767166685e-07
aF1.6044490180888715e-07
aF3.1988230030088882e-08
aF1.926850076161557e-07
aF2.5691334354371875e-07
aF1.9268500767166685e-07
aF1.9268500767166685e-07
aF1.9268500766472796e-07
aF1.926850076161557e-07
aF2.5691334354371875e-07
aF1.926850076161557e-07
aF1.6044490180888715e-07
aF2.3256534698035125e-08
aF1.4029483563771095e-07
aF1.9579147619852577e-07
aF1.926850076161557e-07
aF1.926850076161557e-07
aF1.9268500766472796e-07
aF1.926850076161557e-07
aF2.569133435992299e-07
aF1.9268500767166685e-07
aF1.6044490180888715e-07
aF9.9071158499164369e-09
aF5.994644680651362e-08
aF1.5868177105637926e-08
aF9.4117600712984029e-08
aF1.9268500767166685e-07
aF1.9268500767166685e-07
aF1.926850076161557e-07
aF3.425511246879509e-07
aF2.5691334354371875e-07
aF2.515399926128481e-07
aF2.3004658866732086e-07
aF2.569133435992299e-07
aF2.8948928387784179e-07
aF2.7202589292230073e-08
aF2.1929988669455724e-07
aF2.5691334354371875e-07
aF2.569133435992299e-07
aF2.5691334354371875e-07
aF1.926850076161557e-07
aF1.926850076161557e-07
aF1.9268500767166685e-07
aF1.9268500765778906e-07
aF2.5691334354848924e-07
aF3.1988230064783352e-08
aF1.1351203932363774e-07
aF1.9268500767166685e-07
aF1.926850076161557e-07
aF2.569133435992299e-07
aF1.926850076161557e-07
aF1.9268500767166685e-07
aF1.926850076161557e-07
aF1.9268500767166685e-07
aF2.569133435992299e-07
aF3.1988230009272201e-08
aF1.1090932250379382e-07
aF1.926850076161557e-07
aF1.926850076161557e-07
aF2.5691334354371875e-07
aF1.926850076161557e-07
aF1.7522161699368155e-07
aF1.926850076161557e-07
aF1.9268500767166685e-07
aF2.4818164823248168e-07
aF2.3256534698035125e-08
aF1.6044490180888715e-07
aF1.9268500767166685e-07
aF1.9268500767166685e-07
aF2.5691334354371875e-07
aF1.926850076161557e-07
aF1.0217762713704559e-07
aF5.1970379000287892e-08
aF1.3223480918589381e-07
aF9.0003628855361839e-08
aF4.5925359071219418e-08
aF1.8663998782586511e-07
aF1.9268500767166685e-07
aF1.926850076161557e-07
asg15
F-6.9767344876145998
sg16
I-1
sg17
(lp71
F-0.51798032812987405
aF-0.54335699486917732
aF-0.70055808741095249
aF0.52016289710963792
aF0.37663843636501743
aF-0.33021181615725886
aF-0.5603979760128267
aF0.054631073325086731
aF-0.33943337283300118
aF-0.34951652116752679
aF-0.49730206702452934
aF0.63122632575102711
aF-0.96657016591309641
aF-0.58153455998695291
aF-0.12147706232712195
aF-0.89675470044126115
aF0.17922015037106687
aF-0.30026316863782121
aF-0.28650875139698684
aF-0.9280524299955093
aF0.21077546067118141
aF-0.43249044132860148
aF-0.084609771710433282
aF-0.051152468102628086
aF-0.6540267519561821
aF-0.37863695256088381
aF-0.24598550046591042
aF-0.25469241484998489
aF0.055003239542633621
aF0.5406577152690899
aF0.48986615462347755
aF0.94742880365818949
aF-0.37212040957488129
aF-0.77839346645318308
aF0.63674842336831805
aF-0.49604421062454002
aF-0.6266733956110121
aF0.73918186092915605
aF-0.044736357144052018
aF-0.73207027232811006
aF-0.56412104797857532
aF0.41608919157372459
aF-0.75207753780622921
aF-0.36205233176991292
aF0.68759440552080808
aF-0.79318287164372248
aF0.72518783990201885
aF-0.34250986753393248
aF0.21385829832744535
aF-0.79400113050448162
aF-0.81004238331214573
aF0.31817035199605376
aF0.73172173629247028
aF0.9548779922481303
aF-0.79222337311061941
aF-0.94601645521815303
aF0.82706257711287434
aF-0.57716686852145449
aF-0.13551185417460648
aF-0.8331595430715798
aF0.2568615769598262
aF0.86680873345372755
aF-0.689592493813037
aF-0.41092369010617302
aF-0.065413178941079786
aF0.0011380337533615002
aF-0.73421374928333538
aF-0.73810176977797781
aF0.12545819700291522
aF0.77708841955817465
aF-0.67844579365921909
aF-0.74300261040727422
aF0.47581065140623285
aF-0.86476392374216038
aF0.13319254898615845
aF0.5164983909280535
aF0.30559937765882977
aF0.82405886012582252
aF-0.57349176380404265
aF-0.67404038449947801
aF-0.10193280091926102
aF0.65618762801891184
aF0.34195568698763423
aF0.78054925685993892
aF0.48243856057227036
aF-0.43950931893227402
aF-0.95938890201924132
aF-0.30157587887781329
aF-0.2090404543094963
aF-0.48536833275180991
aF-0.2151781054966368
aF0.76515362633623729
aF-0.49504999530533667
aF-0.57389477819834389
aF-0.20427292830320548
aF-0.0949537422920953
aF0.61666914570594888
aF0.18074183990958953
aF-0.45174676393979318
aF0.85068228507554866
asg7
F3.4255112473125309e-06
sg19
F-0.32297773652993828
sbag1
(g10
g3
NtRp72
(dp73
g13
(lp74
F6.9501562379170601e-05
aF5.2126171784405706e-05
aF4.3404407093659489e-05
aF1.2094634629367107e-06
aF7.3078848678020947e-06
aF9.7438464904398003e-06
aF1.4752047308913552e-05
aF5.212617178437795e-05
aF5.2126171784405706e-05
aF5.2126171784405706e-05
aF5.2126171784405706e-05
aF3.9094628838332035e-05
aF3.255330532023204e-05
aF6.4902194280569425e-06
aF3.9094628838332035e-05
aF5.2126171784405706e-05
aF3.9094628838290402e-05
aF3.9094628838332035e-05
aF3.9094628838290402e-05
aF3.9094628838276524e-05
aF5.2126171784405706e-05
aF3.9094628838276524e-05
aF3.255330532023204e-05
aF6.4902194280014314e-06
aF3.9094628838276524e-05
aF5.2126171784294684e-05
aF3.9094628838221013e-05
aF3.9094628838332035e-05
aF3.9094628838276524e-05
aF3.9094628838276524e-05
aF5.2126171784405706e-05
aF3.9094628838276524e-05
aF3.2553305320245918e-05
aF4.7186109752572758e-06
aF2.8464978121478524e-05
aF3.9724912614780283e-05
aF3.9094628838221013e-05
aF3.9094628838332035e-05
aF3.9094628838276524e-05
aF3.9094628838332035e-05
aF5.2126171784405706e-05
aF3.9094628838332035e-05
aF3.2553305320259796e-05
aF2.010094206084112e-06
aF1.2162773416313222e-05
aF3.2195576690347005e-06
aF1.9095894957632531e-05
aF3.9094628838276524e-05
aF3.9094628838332035e-05
aF3.9094628838276524e-05
aF6.9501562379170601e-05
aF5.2126171784405706e-05
aF5.1035951198041829e-05
aF4.6675068852669588e-05
aF5.212617178437795e-05
aF5.8735634088868949e-05
aF5.5192417183214104e-06
aF4.4494627679969589e-05
aF5.212617178437795e-05
aF5.2126171784405706e-05
aF5.2126171784405706e-05
aF3.9094628838332035e-05
aF3.9094628838332035e-05
aF3.9094628838283896e-05
aF3.9094628838276524e-05
aF5.2126171784405706e-05
aF6.4902194280014314e-06
aF2.3030909886534445e-05
aF3.9094628838290402e-05
aF3.9094628838276524e-05
aF5.212617178437795e-05
aF3.9094628838332035e-05
aF3.9094628838332035e-05
aF3.9094628838332035e-05
aF3.9094628838332035e-05
aF5.2126171784405706e-05
aF6.4902194281124537e-06
aF2.2502834289922502e-05
aF3.9094628838276524e-05
aF3.9094628838276524e-05
aF5.2126171784405706e-05
aF3.9094628838332035e-05
aF3.555141193268066e-05
aF3.9094628838332035e-05
aF3.9094628838276524e-05
aF5.0354563331578284e-05
aF4.7186109752572758e-06
aF3.2553305320259796e-05
aF3.9094628838332035e-05
aF3.9094628838276524e-05
aF5.2126171784405706e-05
aF3.9094628838332035e-05
aF2.0731225837122835e-05
aF1.0544477233587202e-05
aF2.6829647241960464e-05
aF1.8261194821178606e-05
aF9.3179790738862067e-06
aF3.786813067863104e-05
aF3.9094628838283463e-05
aF3.9094628838332035e-05
asg15
F1.9590051328185984
sg16
I-1
sg17
(lp75
F0.19963621832912928
aF0.49318180921648003
aF0.0091490311361916606
aF0.55145567009503837
aF0.34012949659993075
aF0.49867830685166337
aF-0.20101816585723647
aF0.21155277975796635
aF0.69569583392708423
aF-0.3014165460511864
aF0.59933682629476071
aF0.53265657683936507
aF-0.17369592802538958
aF-0.3054117368618065
aF0.60357769606187417
aF-0.58658255992953434
aF0.11819864523909923
aF0.82427724888268517
aF-0.11510495261483605
aF-0.14469224565042019
aF0.73686059441314167
aF0.14738105787118025
aF-0.21938688593604985
aF-0.98708845854251426
aF0.29511258575576266
aF-1.1013794530314753
aF1.183892874108109
aF-0.58236923863831469
aF0.21055827786874218
aF0.13287240746982174
aF-0.38694445789616361
aF-0.13338340569739013
aF-0.037276407887111521
aF0.22500908007595088
aF-0.78481655750037205
aF0.30725193048624089
aF1.2595912570683823
aF-0.86141476096508574
aF-0.22546844229470445
aF-0.50916017569729843
aF0.26163676816983639
aF-0.94693945763486298
aF-0.72804844382275269
aF0.60807202991816345
aF-0.92876390020037292
aF0.037507822797103921
aF0.40533154868550081
aF0.36052218362533656
aF-0.80192733956716544
aF0.47426995210832618
aF0.23234681854483977
aF-0.70945901855925264
aF-1.5806980057677154
aF-0.13558317464985453
aF-0.071525480913252198
aF2.1296766564685528
aF-1.1297751206772386
aF-0.75057745739709181
aF-0.08510208161044841
aF-0.30217367191855438
aF0.90312795263310464
aF0.55732363968475285
aF-0.9683032261605804
aF0.003384231922982608
aF-0.30863166252026603
aF-0.60140207456762818
aF-0.53039705710072027
aF-1.1136643215366393
aF0.12042462704179821
aF0.32714717666722154
aF-0.24041048217319341
aF0.63716605382742053
aF-0.58923813697828276
aF0.7278962155032267
aF0.76709296544453365
aF0.32774679731931572
aF-1.2504808402573824
aF0.21571094377455768
aF-0.48957582512934966
aF-0.40739532169431275
aF0.35504184624813662
aF0.86759070185425025
aF-0.022559169908634349
aF0.65037290559230609
aF0.29254165872326915
aF-0.2029019629321043
aF-0.16760207337642247
aF0.85866493470914806
aF0.90437252617123154
aF0.40229785823428615
aF-0.75618775379414815
aF-0.94974577472990263
aF-0.42505167403563926
aF1.0567626064534685
aF-0.24647890788651936
aF-0.81174192244845944
aF-0.55530602821610053
aF0.86318934020426663
aF0.0075235054296537377
aF-0.72565446917359588
asg7
F0.00069501562379171219
sg19
F-0.77737493273289882
sbag1
(g10
g3
NtRp76
(dp77
g13
(lp78
F2.3582671615507422e-07
aF1.7687003712324456e-07
aF1.4727609631837169e-07
aF4.1038472620158473e-09
aF2.4796485642575306e-08
aF3.3061980795473511e-08
aF5.005537651037173e-08
aF1.7687003712671401e-07
aF1.7687003717181682e-07
aF1.7687003717181682e-07
aF1.7687003711630567e-07
aF1.3265252785110704e-07
aF1.1045707215551204e-07
aF2.2022053625114779e-08
aF1.3265252784503551e-07
aF1.7687003717181682e-07
aF1.3265252785110704e-07
aF1.3265252784416814e-07
aF1.3265252785110704e-07
aF1.3265252785110704e-07
aF1.7687003712671401e-07
aF1.3265252785110704e-07
aF1.1045707215551204e-07
aF2.2022053625114779e-08
aF1.3265252785110704e-07
aF1.7687003717181682e-07
aF1.3265252785110704e-07
aF1.3265252785110704e-07
aF1.3265252785110704e-07
aF1.3265252785110704e-07
aF1.7687003717181682e-07
aF1.3265252785110704e-07
aF1.1045707221102319e-07
aF1.6010784364972608e-08
aF9.6584912432501335e-08
aF1.3479115246184392e-07
aF1.3265252785110704e-07
aF1.3265252785110704e-07
aF1.3265252785110704e-07
aF1.3265252785110704e-07
aF1.7687003717181682e-07
aF1.3265252785110704e-07
aF1.1045707221102319e-07
aF6.8204785708125826e-09
aF4.1269675343791334e-08
aF1.092432583282843e-08
aF6.4794546283941656e-08
aF1.3265252785110704e-07
aF1.3265252785110704e-07
aF1.3265252785110704e-07
aF2.3582671616895201e-07
aF1.7687003711630567e-07
aF1.7317079448186945e-07
aF1.583738240933108e-07
aF1.7687003717181682e-07
aF1.9929669543145012e-07
aF1.8727415701524919e-08
aF1.5097533889729675e-07
aF1.7687003711630567e-07
aF1.7687003717181682e-07
aF1.7687003717181682e-07
aF1.3265252785110704e-07
aF1.3265252785110704e-07
aF1.3265252785110704e-07
aF1.3265252785110704e-07
aF1.7687003717181682e-07
aF2.2022053625114779e-08
aF7.814650004878132e-08
aF1.3265252785110704e-07
aF1.3265252785110704e-07
aF1.7687003711630567e-07
aF1.3265252785110704e-07
aF1.3265252785110704e-07
aF1.3265252785110704e-07
aF1.3265252785110704e-07
aF1.7687003712649717e-07
aF2.2022053625114779e-08
aF7.6354679412471427e-08
aF1.3265252785110704e-07
aF1.3265252785110704e-07
aF1.7687003717181682e-07
aF1.3265252785110704e-07
aF1.206299893308227e-07
aF1.3265252785110704e-07
aF1.3265252784416814e-07
aF1.7085876791167465e-07
aF1.6010784420483759e-08
aF1.1045707215551204e-07
aF1.3265252785110704e-07
aF1.3265252785110704e-07
aF1.7687003717181682e-07
aF1.3265252785110704e-07
aF7.0343410207840407e-08
aF3.5778612086923012e-08
aF9.1036048477377562e-08
aF6.1962313668839641e-08
aF3.1616964157876737e-08
aF1.2849087993593855e-07
aF1.3265252785110704e-07
aF1.3265252785110704e-07
asg15
F6.8104166297459319
sg16
I-1
sg17
(lp79
F0.32466650737039748
aF-0.05283938646545485
aF-0.75394105343899442
aF-0.67928763466633357
aF-0.92389502651110433
aF-0.02548087835097335
aF-0.53369570446352654
aF0.0046269064293987744
aF0.81789356920237
aF0.82470200351055201
aF0.19442337954931488
aF0.23574318467011346
aF-0.8642048224064145
aF-0.35568945993950446
aF-0.0053675394284108053
aF0.77719241522946492
aF-0.89704191266786748
aF0.044285694407569812
aF0.48831220276388054
aF0.60684491352754055
aF0.014944178961867838
aF-0.48276060424554668
aF-0.54993629573589298
aF0.8083108256085958
aF-0.93456641009417429
aF0.53921192549616981
aF0.33196388530316723
aF0.25586221312387852
aF0.26245828134778981
aF0.26039683249951207
aF0.64249394653677083
aF0.51417125544647024
aF0.13364897495011904
aF0.75280517428665572
aF-0.022279104529158426
aF0.41613568015425362
aF0.23242936152741686
aF0.18685481515038238
aF0.083458487251064445
aF-0.36764842868970538
aF-0.95297557756309959
aF0.90582492261639957
aF0.16108541719236952
aF0.34839971946455828
aF0.34519194519116747
aF-0.22060501232779531
aF0.79530781419066476
aF0.46241620474867745
aF-0.76158876608047998
aF0.99030669323262066
aF0.029323155477000817
aF-0.33325566602945234
aF0.92617760355997358
aF-0.010857834705663072
aF0.60611820311019393
aF-0.039703406998274911
aF0.23944834094120462
aF0.48121056682761293
aF-0.46492820960537506
aF-0.71269027560599685
aF0.60633886776373946
aF-0.88068213410253604
aF0.21222974778122033
aF0.52619052163125757
aF-0.85609864853615325
aF0.70267648818005335
aF0.87766789369978016
aF0.73479603961457463
aF0.33116137130983059
aF0.074875001039853811
aF-0.39412645534418367
aF0.60232563749592882
aF0.35387139183035232
aF0.406925880786905
aF0.57697378355247142
aF0.0014908040332455761
aF-0.87068483517254824
aF-0.20458365954101912
aF-0.27913863528528526
aF-0.56566600963481684
aF0.68371132639860688
aF-0.40623215064908502
aF0.56157388287122134
aF-0.077713762744958975
aF0.059310457088278007
aF0.30530192849132437
aF0.31386929025886434
aF-0.51830847915459433
aF0.88370045190262292
aF0.30803013066497098
aF0.90756647807834734
aF0.85460730254965289
aF0.8240129891526432
aF-0.12208620001598754
aF0.70025078265200524
aF0.28553087516443731
aF0.89985785404941976
aF0.40506922189876043
aF-0.8398112691878109
aF0.086952323934114811
asg7
F2.3582671616877193e-06
sg19
F0.70669510292021742
sbag1
(g10
g3
NtRp80
(dp81
g13
(lp82
F1.9959888855058949e-06
aF1.4969916641849323e-06
aF1.2465146275175698e-06
aF3.4734120302193361e-08
aF2.098723607540931e-07
aF2.7982981432028708e-07
aF4.2365842523039987e-07
aF1.4969916641294212e-06
aF1.4969916641849323e-06
aF1.4969916641294212e-06
aF1.4969916641849323e-06
aF1.1227437480970659e-06
aF9.3488597063817735e-07
aF1.8639013854571118e-07
aF1.1227437481109437e-06
aF1.4969916641849323e-06
aF1.1227437480831881e-06
aF1.1227437480831881e-06
aF1.1227437481109437e-06
aF1.1227437481109437e-06
aF1.4969916641849323e-06
aF1.1227437480831881e-06
aF9.3488597063817735e-07
aF1.8639013854571118e-07
aF1.1227437480831881e-06
aF1.4969916641294212e-06
aF1.1227437480831881e-06
aF1.1227437480831881e-06
aF1.1227437480831881e-06
aF1.1227437481109437e-06
aF1.4969916641294212e-06
aF1.1227437480970659e-06
aF9.3488597063817735e-07
aF1.3551199051775598e-07
aF8.1747485972116785e-07
aF1.1408446277116902e-06
aF1.1227437480831881e-06
aF1.1227437480831881e-06
aF1.1227437480831881e-06
aF1.1227437480831881e-06
aF1.4969916641294212e-06
aF1.1227437481942104e-06
aF9.3488597063817735e-07
aF5.7727129521012444e-08
aF3.4929805498018496e-07
aF9.2461249878716956e-08
aF5.4840773056064052e-07
aF1.1227437481109437e-06
aF1.1227437480970659e-06
aF1.1227437480970659e-06
aF1.9959888855058949e-06
aF1.4969916641294212e-06
aF1.4656820345460009e-06
aF1.3404435162955863e-06
aF1.4969916641294212e-06
aF1.6868062934494166e-06
aF1.5850499973657506e-07
aF1.2778242570732345e-06
aF1.4969916641849323e-06
aF1.4969916641294212e-06
aF1.4969916641849323e-06
aF1.1227437481109437e-06
aF1.1227437480970659e-06
aF1.1227437480970659e-06
aF1.1227437480831881e-06
aF1.4969916641294212e-06
aF1.8639013854571118e-07
aF6.6141592480750688e-07
aF1.1227437480831881e-06
aF1.1227437480831881e-06
aF1.4969916641294212e-06
aF1.1227437480831881e-06
aF1.1227437480831881e-06
aF1.1227437480831881e-06
aF1.1227437480831881e-06
aF1.4969916641849323e-06
aF1.8639013854571118e-07
aF6.4625032297760399e-07
aF1.1227437481109437e-06
aF1.1227437480831881e-06
aF1.4969916641849323e-06
aF1.1227437480831881e-06
aF1.0209874520272777e-06
aF1.1227437480831881e-06
aF1.1227437480831881e-06
aF1.4461135160459548e-06
aF1.3551199051775598e-07
aF9.3488597063817735e-07
aF1.1227437480831881e-06
aF1.1227437480831881e-06
aF1.4969916641849323e-06
aF1.1227437480831881e-06
aF5.9537217489413763e-07
aF3.0282282359461732e-07
aF7.7051041535991516e-07
aF5.2443629539045133e-07
aF2.6759949023347218e-07
aF1.0875204148330653e-06
aF1.1227437480831881e-06
aF1.1227437480831881e-06
asg15
F-5.4043389950223037
sg16
I-1
sg17
(lp83
F-1.02521817414827
aF0.65154105228052173
aF-0.20257085618579151
aF-0.24624686074980229
aF-0.094867949045279204
aF-0.39091117299524342
aF-0.61751259272870351
aF-0.3882252086182425
aF0.73643314364887413
aF-0.46202219676527245
aF-0.62585585437436986
aF-0.092573711453495119
aF-0.40530819416149938
aF-0.90791031616277129
aF0.2254505613754732
aF-0.89481534235029603
aF0.66154207290200651
aF-0.31349147935239891
aF0.17380192659772534
aF0.12502052615161244
aF-0.83780429517923183
aF-0.60646841154931486
aF-0.37654801432973534
aF-0.76638634891011737
aF-0.76681812956339268
aF-0.29978701533050134
aF0.80868617172249324
aF-0.69421077964999212
aF-0.42527634074219339
aF-0.21156532272572656
aF-0.065023177845046534
aF0.073431609405104695
aF-0.2991498574581492
aF-0.66651511266810326
aF0.14303021693303239
aF-0.31744908575839709
aF0.3428947836151644
aF-0.72867153013014396
aF0.87751466740545037
aF-0.78994650968978819
aF0.21094423954031111
aF-1.0293338472861733
aF-0.72601168733428489
aF0.92061713936206468
aF0.32965517929565585
aF-0.68296095187751926
aF-0.25700812646084165
aF-0.18831250467479738
aF-0.044275564031231361
aF-0.093105366456080904
aF0.13775378613950073
aF0.26450602861895156
aF0.16442978072362413
aF-0.96368661567825131
aF-0.0084857905387120194
aF-0.14619336730377272
aF-0.20726621352201691
aF0.72123662096669716
aF-0.66011628157453728
aF0.33746101469182999
aF0.52758696210797817
aF-0.1307498051376246
aF-0.096727243996448609
aF-0.071219532078477782
aF-0.95467734788509351
aF-0.24234022130657515
aF0.876427855195832
aF0.044392665717447058
aF-0.48487991501480271
aF0.68428414099053936
aF-0.1911287820029377
aF0.34830428731793245
aF-0.45498890887923515
aF0.69617007780392526
aF-0.84126325264887458
aF0.63064369769704975
aF0.52239973884813684
aF-0.079474016925054985
aF0.19277215207506862
aF-0.61606080676028574
aF0.76217515202935016
aF0.43526454064504322
aF0.92385563838377882
aF-0.44095285739181622
aF0.39313312665547545
aF-0.3636284737923014
aF0.079365915395700259
aF-0.4623318500719058
aF-0.91411188021056788
aF0.85489415611002095
aF0.76996203996231694
aF0.39637144471952362
aF0.46468776828336517
aF0.63700544968348283
aF-0.72525369288515162
aF0.77474872525146943
aF0.51323475874036151
aF-1.0066390303973312
aF-0.43786542448723448
aF0.67531668015197055
asg7
F1.9959888855059403e-05
sg19
F0.80739450354009523
sbag1
(g10
g3
NtRp84
(dp85
g13
(lp86
F-3.7488665650231567e-05
aF-2.8116499237729187e-05
aF-2.3412039234504967e-05
aF-6.5237628954495364e-07
aF-3.9418229323406884e-06
aF-5.2557639097505771e-06
aF-7.9571530522404288e-06
aF-2.8116499237687553e-05
aF-2.8116499237673676e-05
aF-2.8116499237684084e-05
aF-2.8116499237687553e-05
aF-2.108737442829689e-05
aF-1.7559029425906481e-05
aF-3.5007798070418872e-06
aF-2.1087374428241379e-05
aF-2.8116499237673676e-05
aF-2.108737442829689e-05
aF-2.108737442829689e-05
aF-2.1087374428241379e-05
aF-2.108737442829689e-05
aF-2.8116499237729187e-05
aF-2.108737442829689e-05
aF-1.7559029425878725e-05
aF-3.5007798070418872e-06
aF-2.1087374428262196e-05
aF-2.8116499237729187e-05
aF-2.108737442829689e-05
aF-2.1087374428241379e-05
aF-2.108737442829689e-05
aF-2.108737442829689e-05
aF-2.8116499237729187e-05
aF-2.1087374428241379e-05
aF-1.7559029425906481e-05
aF-2.5451863688991105e-06
aF-1.5353813799398597e-05
aF-2.1427345170688117e-05
aF-2.1087374428185868e-05
aF-2.1087374428264364e-05
aF-2.1087374428241379e-05
aF-2.108737442826393e-05
aF-2.8116499237729187e-05
aF-2.108737442829689e-05
aF-1.7559029425906481e-05
aF-1.0842310163017288e-06
aF-6.5605164888404843e-06
aF-1.7366073058466824e-06
aF-1.0300194655366024e-05
aF-2.108737442829689e-05
aF-2.1087374428241379e-05
aF-2.108737442829689e-05
aF-3.7488665650231567e-05
aF-2.8116499237729187e-05
aF-2.752844173725677e-05
aF-2.5176211735700171e-05
aF-2.8116499237729187e-05
aF-3.1681597833836672e-05
aF-2.9770410957530302e-06
aF-2.4000096734921872e-05
aF-2.8116499237673676e-05
aF-2.8116499237729187e-05
aF-2.8116499237687553e-05
aF-2.1087374428262196e-05
aF-2.108737442829689e-05
aF-2.108737442829689e-05
aF-2.1087374428265665e-05
aF-2.8116499237673676e-05
aF-3.5007798070418872e-06
aF-1.2422714695869974e-05
aF-2.108737442829689e-05
aF-2.1087374428241379e-05
aF-2.8116499237687553e-05
aF-2.108737442829689e-05
aF-2.1087374428241379e-05
aF-2.108737442829689e-05
aF-2.108737442829689e-05
aF-2.8116499237673676e-05
aF-3.5007798070418872e-06
aF-1.2137874344120281e-05
aF-2.1087374428269134e-05
aF-2.108737442829689e-05
aF-2.8116499237673676e-05
aF-2.108737442829689e-05
aF-1.9176187551983581e-05
aF-2.1087374428241379e-05
aF-2.108737442829689e-05
aF-2.7160905799517021e-05
aF-2.5451863689962551e-06
aF-1.7559029425906481e-05
aF-2.108737442829689e-05
aF-2.1087374428241379e-05
aF-2.8116499237673676e-05
aF-2.108737442829689e-05
aF-1.1182280906019137e-05
aF-5.6876186366183745e-06
aF-1.4471727548814872e-05
aF-9.8499631316362191e-06
aF-5.0260539486979283e-06
aF-2.0425809740320933e-05
aF-2.108737442829689e-05
aF-2.1087374428269134e-05
asg15
F0.97672433842850237
sg16
I-1
sg17
(lp87
F-0.36185586079945603
aF0.7849164004386886
aF-0.53443922394234378
aF0.56715110375428646
aF-0.098792247772328992
aF0.52464792920993109
aF-1.0288546278832016
aF-0.035228491053654359
aF0.32319944672989892
aF-0.026892010159748847
aF-0.037641289397654376
aF0.73327935782374143
aF-0.45423160019319159
aF0.91792882303357304
aF-0.34063134601057088
aF-0.37462474023451198
aF0.69983580068410745
aF-0.66898836924005767
aF0.38410921166257628
aF-0.6207207517725396
aF0.84503297072823402
aF0.73074799156192827
aF0.21321469780327665
aF-0.60056357468813193
aF-0.045983272645304711
aF-0.78654684074467507
aF0.65141533267639273
aF0.48752647254113324
aF-0.54173919122383951
aF0.6996907052977458
aF-0.59752771054655796
aF0.41117152215360731
aF0.56575300213150737
aF-0.10714527975682331
aF-0.093100781103297919
aF-0.49570873995625792
aF-1.0016596712767543
aF-0.0030720585206917999
aF0.29308218687292109
aF0.015477522315729637
aF0.82059504454373622
aF-0.7867533012949629
aF-0.58422184950550959
aF-0.81756281259958308
aF-0.82697193629398935
aF0.79130358997742445
aF-0.29177420059869974
aF0.57679025022972663
aF-0.28836356041191069
aF-0.5317753232578849
aF0.80502259944017929
aF0.86494166171225362
aF0.53665812365620602
aF0.66289571283611481
aF-1.0412063223559413
aF-0.041306290317279254
aF0.68749331088808008
aF-0.18415622770927095
aF0.33260671539594294
aF0.51279532647866266
aF-0.10026377819933259
aF-0.05334972398530239
aF-0.70879962392206064
aF-0.99009834451486323
aF-0.020006191360744392
aF-0.1954634609970069
aF0.20202618388451624
aF0.15361677851386218
aF0.94865213192890085
aF0.32250400943132329
aF0.068544533948094163
aF-0.53496241033991299
aF0.43124475852713356
aF0.64927582522523386
aF0.75154357339096933
aF-0.21804281805151021
aF-0.66753049299557476
aF-0.28676697958856073
aF-0.20567476439170709
aF0.72546557477416085
aF0.30910805441926864
aF-0.90498801891329805
aF0.25604096630662893
aF-0.30718557179442663
aF0.71128461316040048
aF-0.37359831377372366
aF-1.1339582385820106
aF0.5616283912835035
aF0.78580001874704986
aF0.37853228903448277
aF-0.49507490421042649
aF-0.74195567667216211
aF-0.57897221603165139
aF-0.33276108736036791
aF0.48183040925968618
aF-0.48264375273901877
aF0.64028631457922947
aF-0.27955516582494488
aF-0.89518867874936314
aF-0.24913829134449919
asg7
F-0.00037488665650247527
sg19
F0.074862728971915801
sbag1
(g10
g3
NtRp88
(dp89
g13
(lp90
F3.3314261260561362e-05
aF2.4985695945445308e-05
aF2.0805082767583194e-05
aF5.7973346801466595e-07
aF3.5028965884031926e-06
aF4.6705287845560939e-06
aF7.0711152577729308e-06
aF2.4985695945417552e-05
aF2.4985695945445308e-05
aF2.4985695945445308e-05
aF2.4985695945421021e-05
aF1.8739271959056225e-05
aF1.5603812075715151e-05
aF3.1109641029924973e-06
aF1.8739271959056225e-05
aF2.4985695945445308e-05
aF1.8739271959056225e-05
aF1.8739271959056225e-05
aF1.8739271959056225e-05
aF1.8739271959056225e-05
aF2.4985695945445308e-05
aF1.8739271959056225e-05
aF1.560381207572209e-05
aF3.1109641029924973e-06
aF1.8739271959056225e-05
aF2.4985695945421021e-05
aF1.8739271959056225e-05
aF1.8739271959070103e-05
aF1.8739271959056225e-05
aF1.8739271959056225e-05
aF2.4985695945417552e-05
aF1.8739271959056225e-05
aF1.5603812075770662e-05
aF2.2617770513155833e-06
aF1.3644149648633919e-05
aF1.904138658326282e-05
aF1.8739271959056225e-05
aF1.8739271959056225e-05
aF1.8739271959056225e-05
aF1.8739271959070103e-05
aF2.4985695945445308e-05
aF1.8739271959056225e-05
aF1.5603812075715151e-05
aF9.6350069334061317e-07
aF5.8299957206298103e-06
aF1.5432341613497158e-06
aF9.1532565865692916e-06
aF1.8739271959056225e-05
aF1.8739271959056225e-05
aF1.8739271959056225e-05
aF3.3314261260547484e-05
aF2.4985695945417552e-05
aF2.4463119298212543e-05
aF2.2372812709281487e-05
aF2.4985695945445308e-05
aF2.8153816869269654e-05
aF2.6455442765360715e-06
aF2.1327659414871469e-05
aF2.4985695945445308e-05
aF2.4985695945445308e-05
aF2.4985695945445308e-05
aF1.8739271959056225e-05
aF1.8739271959056225e-05
aF1.8739271959056225e-05
aF1.8739271959056225e-05
aF2.4985695945334285e-05
aF3.1109641029924973e-06
aF1.1039431672577038e-05
aF1.8739271959056225e-05
aF1.8739271959056225e-05
aF2.4985695945445308e-05
aF1.8739271959063164e-05
aF1.8739271959056225e-05
aF1.8739271959056225e-05
aF1.8739271959056225e-05
aF2.4985695945445308e-05
aF3.1109641029924973e-06
aF1.0786308609178619e-05
aF1.8739271959056225e-05
aF1.8739271959056225e-05
aF2.4985695945445308e-05
aF1.8739271959056225e-05
aF1.7040897855591375e-05
aF1.8739271959056225e-05
aF1.8739271959056225e-05
aF2.4136508893657371e-05
aF2.2617770512600721e-06
aF1.5603812075715151e-05
aF1.8739271959056225e-05
aF1.8739271959056225e-05
aF2.4985695945445308e-05
aF1.8739271959064899e-05
aF9.9371215573906824e-06
aF5.0542960099431156e-06
aF1.2860284677840284e-05
aF8.7531588410100225e-06
aF4.4663972817438058e-06
aF1.8151373230912426e-05
aF1.8739271959056225e-05
aF1.8739271959056225e-05
asg15
F0.65910583514721932
sg16
I-1
sg17
(lp91
F0.029984987178283993
aF0.85622890488669312
aF-0.60742049324658753
aF-5.2154174549820902e-05
aF0.45917671452111691
aF0.38081808550862478
aF-0.96979392245302187
aF-0.12824623983829783
aF0.50233961788381354
aF0.7062449762730052
aF-0.019485535491649743
aF0.28234908118929603
aF0.21975884520937822
aF0.56182403177790208
aF0.47068061036295405
aF0.65766462812380566
aF-0.59614705356407238
aF0.2692781134988031
aF-0.6395739333750724
aF0.22636393304548638
aF0.87910483006912754
aF-0.21602898108695215
aF-0.062072897060528077
aF-0.3754749560982682
aF0.77384644137323133
aF-0.03117691263504227
aF0.81345449517224244
aF0.11933113234350269
aF-0.93708076386388617
aF-0.847920250166314
aF-0.22482682147182012
aF0.19504379811913916
aF0.74595115585166649
aF-0.93779803219049251
aF0.182628281905832
aF-0.60343767575657836
aF0.833155965055281
aF-0.54379816387397906
aF0.13566816036610349
aF-0.0763063303096852
aF0.2817681686393278
aF0.78074268366135213
aF-0.33831404451187802
aF-0.26300690680751909
aF-1.377974471905012
aF-0.57075313773791225
aF-0.88155338277351358
aF0.66625458726636166
aF0.94452529330041968
aF-0.20938120176686051
aF0.16283672142305541
aF-0.12289673330544966
aF-0.31601787663581549
aF-0.4783557187739047
aF-0.38232101762359033
aF0.71337995852349534
aF-0.67246595013503507
aF0.86313007081765825
aF-0.35784816186809315
aF-0.57866784277257954
aF0.83395286369084709
aF-0.65737074483223179
aF-0.45402738767911738
aF-1.1713886955500863
aF0.45371302713686668
aF1.4137784029095504
aF0.336520321472698
aF-0.74455443361580942
aF0.3678005743184366
aF-0.88000816413237437
aF-0.83259684792582456
aF0.034857955805018964
aF0.2539377036990762
aF-0.75249066627349992
aF0.42811851652902616
aF-0.27134816732380918
aF0.42928508343744393
aF-1.1072556416999113
aF-0.36320629089357215
aF-0.56795252741404767
aF0.41271141853848387
aF0.72475498375583769
aF0.18298339142236897
aF-0.70434505536919834
aF-0.75255300298400984
aF0.36381088498457148
aF-0.31751575601069837
aF0.35157553785688245
aF-0.1987924208165627
aF0.98592244681172725
aF-0.95562162582286159
aF0.010708005092113159
aF-0.82652800127831516
aF-1.2290830456761217
aF-0.68031299934977363
aF0.062944795127047787
aF0.33166657191829119
aF-0.46521313731186692
aF0.48041662685871478
aF0.17399752771934915
asg7
F0.00033314261260560999
sg19
F0.005708867920078381
sbag1
(g10
g3
NtRp92
(dp93
g13
(lp94
F-1.1906163514541213e-05
aF-8.9296226358781539e-06
aF-7.4355158419248113e-06
aF-2.0719059057316969e-07
aF-1.2518980754272491e-06
aF-1.669197433884495e-06
aF-2.5271415694527732e-06
aF-8.9296226359891762e-06
aF-8.9296226358781539e-06
aF-8.9296226358781539e-06
aF-8.9296226358781539e-06
aF-6.6972169768808598e-06
aF-5.5766368813880973e-06
aF-1.1118255635045315e-06
aF-6.6972169768808598e-06
aF-8.9296226358781539e-06
aF-6.6972169768808598e-06
aF-6.6972169768808598e-06
aF-6.6972169768808598e-06
aF-6.6972169768808598e-06
aF-8.9296226358781539e-06
aF-6.6972169768808598e-06
aF-5.5766368814297307e-06
aF-1.111825563476776e-06
aF-6.6972169769224932e-06
aF-8.9296226358781539e-06
aF-6.6972169768808598e-06
aF-6.6972169769918821e-06
aF-6.6972169768808598e-06
aF-6.697216976936371e-06
aF-8.9296226358781539e-06
aF-6.6972169769086154e-06
aF-5.5766368813880973e-06
aF-8.0833512094979909e-07
aF-4.8762743217745097e-06
aF-6.8051895382170713e-06
aF-6.697216976936371e-06
aF-6.6972169769086154e-06
aF-6.6972169768808598e-06
aF-6.6972169769155543e-06
aF-8.9296226358781539e-06
aF-6.6972169769086154e-06
aF-5.5766368814436085e-06
aF-3.4434492518498061e-07
aF-2.0835786150403754e-06
aF-5.5153551570263915e-07
aF-3.2712767891740491e-06
aF-6.6972169768808598e-06
aF-6.6972169769155543e-06
aF-6.6972169768808598e-06
aF-1.1906163514541213e-05
aF-8.9296226358781539e-06
aF-8.7428592866478638e-06
aF-7.9958058896156814e-06
aF-8.9296226359891762e-06
aF-1.0061875440725565e-05
aF-9.4548945556161001e-07
aF-7.6222791911551013e-06
aF-8.9296226358781539e-06
aF-8.9296226358781539e-06
aF-8.9296226358868275e-06
aF-6.697216976936371e-06
aF-6.6972169768808598e-06
aF-6.697216976936371e-06
aF-6.6972169768808598e-06
aF-8.9296226359891762e-06
aF-1.1118255635045315e-06
aF-3.9453757527674327e-06
aF-6.6972169768808598e-06
aF-6.697216976936371e-06
aF-8.9296226359891762e-06
aF-6.6972169768808598e-06
aF-6.6972169769224932e-06
aF-6.6972169769224932e-06
aF-6.6972169769086154e-06
aF-8.9296226358781539e-06
aF-1.111825563476776e-06
aF-3.8549122555187054e-06
aF-6.697216976936371e-06
aF-6.6972169769155543e-06
aF-8.9296226358781539e-06
aF-6.6972169769224932e-06
aF-6.0902360918824172e-06
aF-6.6972169768808598e-06
aF-6.6972169768808598e-06
aF-8.6261321934344437e-06
aF-8.0833512096020743e-07
aF-5.5766368814436085e-06
aF-6.6972169768808598e-06
aF-6.6972169768808598e-06
aF-8.9296226358781539e-06
aF-6.6972169768808598e-06
aF-3.5514218130333619e-06
aF-1.8063517685015101e-06
aF-4.5961292978735635e-06
aF-3.1282860999404249e-06
aF-1.5962430006677408e-06
aF-6.4871082090522947e-06
aF-6.6972169768808598e-06
aF-6.6972169768808598e-06
asg15
F1.029230878960339
sg16
I-1
sg17
(lp95
F0.87983377968399035
aF0.45345506636778088
aF0.53932635290917286
aF0.14953718408610014
aF-0.60763783146267347
aF-0.40629515033027835
aF0.57621314288003944
aF1.0374259548469917
aF0.76302056235689864
aF0.78887692600838055
aF-0.91514487558510926
aF0.94610138265157329
aF-0.95852068801962653
aF-0.85944890124830908
aF-0.91176883766401351
aF0.57001334358621714
aF0.90864126875556728
aF0.87452738410960085
aF-0.82404788743799584
aF-0.75103058171521975
aF0.42120905797424635
aF-0.89640979997694881
aF-0.10920822920784717
aF-0.14952407807546991
aF-0.11724870759827749
aF-0.53342153503356049
aF0.80070231500160671
aF-1.0758238518638155
aF-0.53682403800315914
aF0.49925442872646897
aF-0.53947883409114561
aF-0.17067889217574725
aF-0.64865089210405791
aF0.84574872924371247
aF0.91161968065587007
aF0.78932960469377311
aF-0.43776305534030507
aF-0.16476936830593797
aF0.82945768979714718
aF-0.045624028452996089
aF0.19926556023585529
aF-0.20532029083887368
aF-0.19462277434199662
aF-0.49041336849987371
aF0.0058997134173123435
aF0.80858522885270745
aF-0.32506101516416092
aF-0.80033321715707073
aF-0.050840238710786224
aF0.52757919509608786
aF0.69762771532510293
aF0.13045965778989366
aF0.28361532127354844
aF0.99029302976268208
aF-1.0715737057262409
aF0.45814436006124798
aF0.072362629909975495
aF0.86939518129896876
aF0.6684619186491394
aF-0.39103461568441633
aF-0.0086307881199065902
aF-0.31290157262515844
aF0.54180767738787716
aF0.29941284640702448
aF0.85218994351816679
aF1.1473036576100288
aF0.35489913533300077
aF-1.0028279558658588
aF-0.81294052157042007
aF-0.33156939733959495
aF-1.0397923079066584
aF-0.94405016816357101
aF-0.08166153672486845
aF-0.10981188631250459
aF-0.17699000522021177
aF-0.37969269402254363
aF-0.15424823143806091
aF0.8075459497667794
aF-0.49229682170148964
aF0.031114564376245782
aF-0.98891900441000047
aF-0.11332278873327196
aF-0.90380396029192855
aF-0.64481929801588056
aF-0.61581015418496521
aF1.1007619387504044
aF-0.0096975326497777924
aF-0.4021693637230917
aF0.92108966233693368
aF0.94417795317628628
aF0.35628256943753678
aF0.74568736932329049
aF0.082458010764393727
aF-0.009469677980165141
aF0.41480689216496452
aF-1.2682193168974598
aF-1.1580254208069394
aF-0.57818620778603369
aF-0.81683750342108075
aF-0.87888162992024255
asg7
F-0.00011906163514516765
sg19
F0.49062757911866722
sbag1
(g10
g3
NtRp96
(dp97
g13
(lp98
F-8.992708161370544e-05
aF-6.744531121027908e-05
aF-5.6160344105826709e-05
aF-1.5649075476575902e-06
aF-9.4555681402763714e-06
aF-1.2607424187016658e-05
aF-1.9087463891509504e-05
aF-6.744531121027908e-05
aF-6.744531121027908e-05
aF-6.744531121027908e-05
aF-6.744531121027908e-05
aF-5.058398340770931e-05
aF-4.2120258079356154e-05
aF-8.3976024741749811e-06
aF-5.0583983407737065e-05
aF-6.744531121027908e-05
aF-5.0583983407737065e-05
aF-5.0583983407737065e-05
aF-5.0583983407709743e-05
aF-5.0583983407737065e-05
aF-6.744531121027908e-05
aF-5.0583983407737065e-05
aF-4.2120258079370032e-05
aF-8.3976024742304922e-06
aF-5.0583983407737065e-05
aF-6.7445311210390102e-05
aF-5.0583983407737065e-05
aF-5.0583983407737065e-05
aF-5.0583983407737065e-05
aF-5.0583983407737065e-05
aF-6.744531121027908e-05
aF-5.0583983407737065e-05
aF-4.2120258079370032e-05
aF-6.1053435311819726e-06
aF-3.6830429749140636e-05
aF-5.1399498608661887e-05
aF-5.058398340770931e-05
aF-5.058398340770931e-05
aF-5.0583983407709743e-05
aF-5.0583983407737065e-05
aF-6.744531121027908e-05
aF-5.058398340770931e-05
aF-4.2120258079356154e-05
aF-2.6008322623338742e-06
aF-1.573723928238735e-05
aF-4.1657398100469756e-06
aF-2.4707906492338338e-05
aF-5.0583983407737065e-05
aF-5.0583983407737065e-05
aF-5.058398340770931e-05
aF-8.992708161370544e-05
aF-6.744531121027908e-05
aF-6.6034690322291922e-05
aF-6.0392206770010226e-05
aF-6.744531121027908e-05
aF-7.5997200344124494e-05
aF-7.1412682458582566e-06
aF-5.7570964993924889e-05
aF-6.744531121027908e-05
aF-6.744531121027908e-05
aF-6.744531121027908e-05
aF-5.0583983407737065e-05
aF-5.0583983407737065e-05
aF-5.0583983407737065e-05
aF-5.058398340770931e-05
aF-6.744531121027908e-05
aF-8.3976024741749811e-06
aF-2.9799366260241378e-05
aF-5.0583983407737065e-05
aF-5.0583983407737065e-05
aF-6.744531121027908e-05
aF-5.0583983407737065e-05
aF-5.0583983407737065e-05
aF-5.0583983407737065e-05
aF-5.0583983407737065e-05
aF-6.744531121027908e-05
aF-8.3976024742304922e-06
aF-2.9116096767589639e-05
aF-5.0583983407737065e-05
aF-5.0583983407737065e-05
aF-6.744531121027908e-05
aF-5.058398340770931e-05
aF-4.5999465521529004e-05
aF-5.0583983407737065e-05
aF-5.0583983407737065e-05
aF-6.5153052267175049e-05
aF-6.1053435311819726e-06
aF-4.2120258079370032e-05
aF-5.0583983407737065e-05
aF-5.0583983407737065e-05
aF-6.744531121027908e-05
aF-5.058398340770931e-05
aF-2.6823837824485608e-05
aF-1.3643348901637431e-05
aF-3.4714498417048878e-05
aF-2.3627899874978375e-05
aF-1.205640040258249e-05
aF-4.8997034908626613e-05
aF-5.0583983407737065e-05
aF-5.0583983407737065e-05
asg15
F-1.0878207328612908
sg16
I-1
sg17
(lp99
F-0.95905657727997828
aF-0.27361317819350045
aF0.6891022941704511
aF0.87426215304014265
aF-0.16251761739629572
aF0.18083684904152925
aF0.27428348144584175
aF0.85048417594178349
aF0.40078107252572776
aF0.12972821229650408
aF0.47168240528319166
aF0.14527167851342765
aF0.098268886939855346
aF0.94053914658306592
aF-0.25154985383067696
aF-0.33591565233525544
aF-0.62538349786127889
aF-0.56779689280463252
aF-0.0028531303533368625
aF-0.51426215381136764
aF0.61239350010735605
aF0.52109398871316714
aF0.90758518500039576
aF0.18095408857226483
aF0.63630873116082454
aF-1.158673841674456
aF1.4182062540388145
aF0.77031091362504123
aF0.46949221771312361
aF0.9751416822144765
aF0.80168679891221906
aF-0.28347736696860609
aF0.40052138029132323
aF-1.3457577926160327
aF0.092999413348970023
aF-0.55839441159001713
aF0.10495722940690869
aF0.0087104219036260953
aF0.003429093972553995
aF-0.37185633361335063
aF-0.41283366008643879
aF0.21472227965611074
aF-0.086060728778860313
aF-0.90145263365111339
aF0.65516008725460873
aF0.19247352719245439
aF1.2131561288418224
aF0.35436554845807372
aF-0.52642147413848739
aF0.089638891295873629
aF0.044003050492252414
aF0.097893813673806049
aF-1.0327919889741699
aF0.44745605449368586
aF0.77636320669541348
aF-0.18743769475358601
aF1.0863063658137471
aF0.71634008056215581
aF0.11681110676832436
aF0.61034136158411589
aF-0.29198323376366603
aF-0.70448765609245045
aF-0.86260177945754379
aF-0.93618350310824783
aF-0.013607078935817743
aF-0.52974561175506785
aF-0.78137707351280195
aF-0.30738733263918777
aF-0.56076897336606701
aF0.37582865195832321
aF-0.53985006334657493
aF0.36589227481631409
aF-0.54748490907354097
aF-1.4048430968344612
aF0.66761820897804092
aF0.31030703301075208
aF0.40119910853741608
aF-0.83833091422165473
aF0.48228695157820162
aF0.39458266782538615
aF0.33969833335597116
aF0.19628671370599132
aF-0.30169750561854397
aF-0.53035312299633897
aF0.54593916650337126
aF-0.8207414574916404
aF0.72318462795171923
aF0.37162222985315835
aF-0.84614517490079888
aF-0.33373117869249252
aF-0.47012568466303445
aF0.21229130942005286
aF0.93457185696316003
aF0.52700468816180479
aF0.22317425067479871
aF0.28831791886284946
aF0.80474584743090105
aF-0.45022779868452617
aF-0.97630436694104361
aF-0.29327059902571445
asg7
F-0.00089927081613706426
sg19
F0.73751109210179522
sbag1
(g10
g3
NtRp100
(dp101
g13
(lp102
F4.1122250734604293e-06
aF3.0841688051230776e-06
aF2.568124874313682e-06
aF7.1560779468793356e-08
aF4.3238837166281741e-07
aF5.7651782892076398e-07
aF8.7283992977749136e-07
aF3.0841688051230776e-06
aF3.0841688051230776e-06
aF3.0841688051230776e-06
aF3.0841688051230776e-06
aF2.3131266038145526e-06
aF1.9260936557352615e-06
aF3.840092531737227e-07
aF2.3131266038145526e-06
aF3.0841688051230776e-06
aF2.3131266038145526e-06
aF2.3131266038423082e-06
aF2.3131266038414408e-06
aF2.3131266038145526e-06
aF3.0841688051230776e-06
aF2.3131266038145526e-06
aF1.9260936557907726e-06
aF3.840092531737227e-07
aF2.3131266038145526e-06
aF3.0841688051230776e-06
aF2.3131266038145526e-06
aF2.3131266038145526e-06
aF2.3131266038145526e-06
aF2.3131266038145526e-06
aF3.0841688051230776e-06
aF2.3131266038145526e-06
aF1.9260936557907726e-06
aF2.7918782974367673e-07
aF1.6841980631787656e-06
aF2.3504188410294891e-06
aF2.3131266038145526e-06
aF2.3131266038145526e-06
aF2.3131266038423082e-06
aF2.3131266038145526e-06
aF3.0841688051230776e-06
aF2.3131266038423082e-06
aF1.9260936557907726e-06
aF1.1893199969303936e-07
aF7.1963938785835069e-07
aF1.9049277916183271e-07
aF1.1298539969173405e-06
aF2.3131266038145526e-06
aF2.3131266038145526e-06
aF2.3131266038145526e-06
aF4.1122250735159405e-06
aF3.0841688051230776e-06
aF3.0196633137719031e-06
aF2.7616413483810831e-06
aF3.0841688051230776e-06
aF3.475233346428297e-06
aF3.2655904991241158e-07
aF2.6326303656787342e-06
aF3.0841688050120553e-06
aF3.0841688051230776e-06
aF3.0841688051230776e-06
aF2.3131266038145526e-06
aF2.3131266038145526e-06
aF2.3131266038423082e-06
aF2.3131266038145526e-06
aF3.0841688051230776e-06
aF3.840092531737227e-07
aF1.3626785047016199e-06
aF2.3131266038145526e-06
aF2.3131266038145526e-06
aF3.0841688051230776e-06
aF2.3131266038145526e-06
aF2.3131266038145526e-06
aF2.3131266038145526e-06
aF2.3131266038145526e-06
aF3.0841688051230776e-06
aF3.840092531737227e-07
aF1.3314336573255758e-06
aF2.3131266038145526e-06
aF2.3131266038145526e-06
aF3.0841688051230776e-06
aF2.3131266038145526e-06
aF2.1034837569544607e-06
aF2.3131266038145526e-06
aF2.3131266038145526e-06
aF2.9793473816930316e-06
aF2.7918782974367673e-07
aF1.9260936557491393e-06
aF2.3131266038414408e-06
aF2.3131266038423082e-06
aF3.0841688051230776e-06
aF2.3131266038423082e-06
aF1.2266122338955299e-06
aF6.2388904908949883e-07
aF1.5874398261450651e-06
aF1.0804669800940081e-06
aF5.5132037135585676e-07
aF2.2405579260809105e-06
aF2.3131266038145526e-06
aF2.3131266038145526e-06
asg15
F5.2182504214600929
sg16
I-1
sg17
(lp103
F0.75208116883549014
aF-0.08394850953405425
aF0.90360077852759946
aF0.23961405674701489
aF-0.54951598705201321
aF0.79763814642776787
aF0.98498102164497858
aF-0.33071591188866495
aF0.14412280602657751
aF0.28935868230842454
aF0.83628588128126757
aF-0.44792987319209504
aF0.43054728606071069
aF0.91446332861200841
aF-0.43480412813738112
aF-0.8473846615578956
aF-0.58992181943585176
aF0.21510137683567362
aF-0.0050458432002171375
aF0.95924325838992763
aF-0.21574415253029972
aF-0.33138694268862195
aF-0.88612014885340995
aF0.89618699982594352
aF0.95714561019146849
aF-0.55819234708047727
aF-0.64853051279324303
aF-0.63543560192340431
aF0.65673388863862192
aF-0.83197027428294168
aF0.78709839448074359
aF-0.95463727736153692
aF0.75882743287467724
aF0.19468885397620064
aF-0.3429285186212232
aF-0.17789904362879197
aF0.31808564937889844
aF0.89288036883642019
aF0.19951657873487039
aF0.80222517632779444
aF-0.88869143767351033
aF-0.08277601333977902
aF-0.58306840900510859
aF0.4542494628327014
aF-0.25500617317859275
aF0.3153857001071031
aF0.16801570798153997
aF-0.76710529651013948
aF0.68170811019462063
aF-0.83403164640977268
aF0.36122054084782484
aF0.14834012031655852
aF-0.11763376896595928
aF0.26479513860109144
aF0.16779794419855626
aF0.72564808423061422
aF0.84359199237539517
aF-0.18900275515194001
aF1.0024997353690013
aF-0.38018890707624109
aF-0.90927013652950872
aF1.0106767949542252
aF0.74929013428331503
aF-0.064492209993303226
aF0.70018394692354458
aF0.85848642989494606
aF-0.17088621403376736
aF0.77267231362795219
aF0.55245185667026198
aF0.46517664519906293
aF-0.70831295036562969
aF0.35743905537342996
aF-0.64969985522484708
aF-0.92521482232649033
aF-0.30884686519531029
aF-0.77276481395066732
aF0.56055830467981571
aF0.56410599339383927
aF0.56179186645919577
aF0.54890429780551175
aF0.48934660852295309
aF0.5225969616445113
aF-0.48917924682056318
aF0.44985169399427483
aF0.28950213723809121
aF-0.5477591133887717
aF0.23867530526915892
aF-0.038277899728399116
aF0.0036155731413843074
aF-0.18741913817200218
aF0.02536892012062884
aF0.096928755342587936
aF0.95175547078846889
aF-0.89838483771306599
aF0.2653597753985899
aF0.11387147753457968
aF0.96696798137564699
aF-0.4827896147394064
aF0.74047922222989626
aF0.96849894311218099
asg7
F4.1122250734955202e-05
sg19
F-0.70855021075565949
sbag1
(g10
g3
NtRp104
(dp105
g13
(lp106
F-7.4834036587256847e-05
aF-5.6125527440387124e-05
aF-4.6734589515748381e-05
aF-1.3022589700241449e-06
aF-7.8685788470478357e-06
aF-1.0491438462767455e-05
aF-1.5883891099077729e-05
aF-5.612552744041488e-05
aF-5.6125527440387124e-05
aF-5.612552744041488e-05
aF-5.612552744041488e-05
aF-4.2094145580318099e-05
aF-3.5050942136793939e-05
aF-6.9881784166003769e-06
aF-4.2094145580318099e-05
aF-5.6125527440387124e-05
aF-4.2094145580318099e-05
aF-4.2094145580318099e-05
aF-4.2094145580318099e-05
aF-4.2094145580318099e-05
aF-5.6125527440442635e-05
aF-4.2094145580318099e-05
aF-3.5050942136821694e-05
aF-6.9881784166003769e-06
aF-4.2094145580318099e-05
aF-5.612552744041488e-05
aF-4.2094145580318099e-05
aF-4.2094145580318099e-05
aF-4.2094145580318099e-05
aF-4.2094145580318099e-05
aF-5.612552744041488e-05
aF-4.2094145580318099e-05
aF-3.505094213684945e-05
aF-5.0806441506522776e-06
aF-3.0648939984612156e-05
aF-4.2772787578804206e-05
aF-4.2094145580318099e-05
aF-4.2094145580318099e-05
aF-4.2094145580318099e-05
aF-4.2094145580318099e-05
aF-5.6125527440387124e-05
aF-4.2094145580318099e-05
aF-3.5050942136793939e-05
aF-2.1643177248176215e-06
aF-1.3095956402864317e-05
aF-3.4665766948105414e-06
aF-2.0561018385878427e-05
aF-4.2094145580318099e-05
aF-4.2094145580318099e-05
aF-4.2094145580318099e-05
aF-7.4834036587256847e-05
aF-5.6125527440387124e-05
aF-5.4951660199836772e-05
aF-5.0256191237441072e-05
aF-5.6125527440442635e-05
aF-6.3242097586568846e-05
aF-5.9427029054370806e-06
aF-4.7908456756340367e-05
aF-5.6125527440442635e-05
aF-5.612552744041488e-05
aF-5.612552744041488e-05
aF-4.2094145580318099e-05
aF-4.2094145580318099e-05
aF-4.2094145580318099e-05
aF-4.2094145580318099e-05
aF-5.612552744041488e-05
aF-6.9881784166003769e-06
aF-2.4797945457344372e-05
aF-4.2094145580318099e-05
aF-4.2094145580318099e-05
aF-5.6125527440387124e-05
aF-4.2094145580318099e-05
aF-4.2094145580318099e-05
aF-4.2094145580318099e-05
aF-4.2094145580318099e-05
aF-5.6125527440498146e-05
aF-6.9881784166003769e-06
aF-2.422935351265032e-05
aF-4.2094145580318099e-05
aF-4.2094145580318099e-05
aF-5.6125527440387124e-05
aF-4.2094145580318099e-05
aF-3.827907704842537e-05
aF-4.2094145580318099e-05
aF-4.2094145580318099e-05
aF-5.4217993174468515e-05
aF-5.0806441506401345e-06
aF-3.505094213684945e-05
aF-4.2094145580318099e-05
aF-4.2094145580318099e-05
aF-5.612552744041488e-05
aF-4.2094145580318099e-05
aF-2.2321819246717833e-05
aF-1.1353497217522768e-05
aF-2.8888139123717238e-05
aF-1.9662276279808211e-05
aF-1.0032896571865457e-05
aF-4.0773544934702421e-05
aF-4.2094145580318099e-05
aF-4.2094145580318099e-05
asg15
F-2.0430541464768464
sg16
I-1
sg17
(lp107
F0.58359943196481223
aF-0.77704093905238902
aF-0.098282757867912823
aF0.027964711996990275
aF-0.71320728808731781
aF-0.87891032760435006
aF1.266921874543038
aF0.10908376935094477
aF-0.6190938395565192
aF-0.23050141679472386
aF0.18821328940851756
aF0.33545423777082473
aF-0.29044107031593996
aF-1.1444899844581848
aF-1.4001589317004721
aF0.50472517363444214
aF-0.85293535138775944
aF-0.6321039338963772
aF-0.45434464300849076
aF-0.30410035187979045
aF0.31749242203126632
aF0.11529413553532369
aF-0.22246990225641144
aF0.49774565510743551
aF0.81164648281091378
aF0.18687321409480345
aF-0.2038332455656548
aF-0.43611714467157386
aF0.2842353515681717
aF0.76387274578363806
aF0.066818756635305926
aF-0.5400519562173185
aF0.89976094822660257
aF-0.014987836905382501
aF-0.42106799886432239
aF0.40916021921598517
aF0.45005071823497977
aF-1.1229013054516603
aF-0.047658877708050412
aF-0.47971225109302817
aF0.74191136422269099
aF0.8966048535774247
aF0.40902992061822829
aF-0.88052201726044221
aF1.1114881316936309
aF0.84391704608484086
aF-0.62721085885182659
aF0.69024545130652781
aF0.76429818901233859
aF-0.86693657476119101
aF-0.58890865153557803
aF-0.75510488836582723
aF-0.19876819529790882
aF-1.2861920647980614
aF-0.33633004375798609
aF1.0200965483958253
aF-0.67234515090231251
aF0.42586132598519116
aF-0.33311685805096442
aF0.093983301276874598
aF0.16840615264837333
aF0.37763171993321643
aF0.43170970652973684
aF-0.43010450870024075
aF0.30554679151250846
aF-0.10888944281530283
aF1.3801666022254568
aF0.42879350490771401
aF0.089472059021916572
aF-0.83702978124549476
aF0.55378403032722134
aF0.098527489614532393
aF-0.50480983630086673
aF-1.4572189145816778
aF-0.86668499456276515
aF1.2140174494437725
aF0.82570180265399828
aF0.87488936858826805
aF0.64517173078574119
aF0.47868255966835527
aF-0.88308913964887503
aF0.67993557666624738
aF-0.17529124671927851
aF-1.4886571726018725
aF-0.75929134624122741
aF-0.082145562251242296
aF0.15640056636647906
aF0.74429756945508674
aF0.7917429660270634
aF-0.61964828703222263
aF0.2061640664611899
aF-0.16522758969982063
aF0.20676728586632676
aF0.017990456109241614
aF-1.1363390335614731
aF-0.63078469270998772
aF-0.30595839735532587
aF-0.89490028251145981
aF0.25051890149082001
aF-0.45230772756962945
asg7
F-0.00074834036587228712
sg19
F-0.65017065781067662
sbag1
(g10
g3
NtRp108
(dp109
g13
(lp110
F9.4930958149941347e-07
aF7.1198218609680453e-07
aF5.9285314057966332e-07
aF1.6519848100582379e-08
aF9.9817110355004957e-08
aF1.3308948053347702e-07
aF2.0149561219540146e-07
aF7.1198218609680453e-07
aF7.1198218609680453e-07
aF7.1198218609680453e-07
aF7.1198218609680453e-07
aF5.3398663957260339e-07
aF4.4463985543474749e-07
aF8.8648762441856377e-08
aF5.3398663957260339e-07
aF7.1198218609680453e-07
aF5.3398663957260339e-07
aF5.3398663957260339e-07
aF5.3398663957260339e-07
aF5.3398663957260339e-07
aF7.1198218609680453e-07
aF5.3398663957260339e-07
aF4.4463985549025864e-07
aF8.8648762386345226e-08
aF5.3398663957260339e-07
aF7.1198218609680453e-07
aF5.3398663957260339e-07
aF5.3398663957260339e-07
aF5.3398663957260339e-07
aF5.3398663957260339e-07
aF7.1198218609680453e-07
aF5.3398663957260339e-07
aF4.4463985549025864e-07
aF6.4450675019145365e-08
aF3.8879811536940423e-07
aF5.4259557447089435e-07
aF5.3398663957260339e-07
aF5.3398663957260339e-07
aF5.3398663957260339e-07
aF5.3398663957260339e-07
aF7.1198218609680453e-07
aF5.3398663957260339e-07
aF4.4463985543474749e-07
aF2.7455522216834893e-08
aF1.6612917674851957e-07
aF4.3975370345172848e-08
aF2.608274609870731e-07
aF5.3398663957954229e-07
aF5.3398663957260339e-07
aF5.3398663957260339e-07
aF9.4930958144390232e-07
aF7.1198218609680453e-07
aF6.9709105543491745e-07
aF6.3752653267634685e-07
aF7.1198218609680453e-07
aF8.0225966592184506e-07
aF7.5386349163153454e-08
aF6.0774427129706154e-07
aF7.1198218609680453e-07
aF7.1198218609680453e-07
aF7.1198218609680453e-07
aF5.3398663957260339e-07
aF5.3398663957260339e-07
aF5.3398663957260339e-07
aF5.3398663957260339e-07
aF7.119821861020087e-07
aF8.8648762441856377e-08
aF3.1457513582910934e-07
aF5.3398663957260339e-07
aF5.3398663957260339e-07
aF7.1198218609680453e-07
aF5.3398663957260339e-07
aF5.3398663957260339e-07
aF5.3398663957260339e-07
aF5.3398663957260339e-07
aF7.1198218609680453e-07
aF8.8648762386345226e-08
aF3.0736224443383975e-07
aF5.3398663957260339e-07
aF5.3398663957260339e-07
aF7.1198218610374342e-07
aF5.3398663957260339e-07
aF4.8559046483820367e-07
aF5.3398663957260339e-07
aF5.3398663957260339e-07
aF6.8778409872960466e-07
aF6.4450675019145365e-08
aF4.4463985549025864e-07
aF5.3398663957260339e-07
aF5.3398663957260339e-07
aF7.1198218609680453e-07
aF5.3398663957260339e-07
aF2.8316415701112874e-07
aF1.440251546913629e-07
aF3.6646141932106246e-07
aF2.494264390584533e-07
aF1.27272632627351e-07
aF5.1723411753634707e-07
aF5.3398663957260339e-07
aF5.3398663957260339e-07
asg15
F6.2455100156531964
sg16
I-1
sg17
(lp111
F-0.54981168755380561
aF-0.10102344249743497
aF-0.065617445129648094
aF0.38546098964421982
aF-0.55923521313882329
aF-0.098130934829720767
aF-0.91709092016796934
aF-0.41215853760402982
aF0.26685070401023719
aF0.94404920754713439
aF-0.27065467323078379
aF-0.23899987303196407
aF0.11547636628242097
aF-0.82141077647438054
aF-0.30281383591921135
aF0.48753954499805552
aF0.47744124085842987
aF-0.51686973149799431
aF0.25794562870326881
aF0.98516145800771548
aF-0.76298322261621376
aF0.16713804976390861
aF-0.8689930255025391
aF0.068681105018318547
aF0.21742883351795186
aF-0.49497712517658465
aF0.74461721976514172
aF0.52478944664460736
aF0.43030691719698461
aF-0.23265876661311008
aF-0.88528113481476034
aF0.98127573230923582
aF0.96781657522914644
aF0.30474254911899989
aF-0.58954794172678882
aF0.83341267186133072
aF-0.32028979257981588
aF0.42705882878959528
aF-0.89903851039251848
aF0.98482626203242707
aF1.0119390813207607
aF0.6945334398282712
aF0.47789670724474004
aF-0.17060037949658999
aF0.66651814121894071
aF0.30130234735990663
aF0.0035825622906023339
aF0.055090753742919933
aF0.89833190949136488
aF-0.92900271352495434
aF-0.25107270056554992
aF-0.12619049308444039
aF-0.58330999821309293
aF0.65907400130681371
aF-0.14489939399863114
aF0.15426794788088649
aF-0.64356279825646834
aF0.43332894383779474
aF0.3946798496195511
aF0.38458925802192695
aF0.44087761413300658
aF-0.38005148079090328
aF0.17058569864410264
aF-0.24669986378394212
aF-0.5890929734723428
aF-0.012725258531771373
aF0.91678900696325094
aF0.33926636147222738
aF0.2435293805036301
aF-0.33949912696246837
aF-0.18357854626294953
aF0.73875219681322757
aF-0.091967560071300358
aF0.88903064280131416
aF-0.21669009485260521
aF0.14753479463515862
aF-0.48179244654923581
aF-0.85885201467372041
aF0.12454036130532074
aF0.40547015657466073
aF-0.05482825848796874
aF0.73741579294869242
aF0.9015306109224821
aF1.0156024970720603
aF-0.4336010293894994
aF-0.072536810094363718
aF-0.33696069016975433
aF0.52925072503733372
aF-0.70857688086647586
aF0.89825486569301094
aF-0.12716348840427158
aF0.87781035130083218
aF-0.60124989265940987
aF0.83951343970502856
aF0.82295654319691935
aF0.64076447272169346
aF0.20406586025294077
aF0.8994820123155215
aF-0.15978290864130623
aF0.77753798311937716
asg7
F9.4930958146980814e-06
sg19
F0.062343333046155226
sbag1
(g10
g3
NtRp112
(dp113
g13
(lp114
F9.3131008575164653e-05
aF6.9848256431387368e-05
aF5.8161227904363066e-05
aF1.6206621590297843e-06
aF9.7924516369030101e-06
aF1.3056602182648369e-05
aF1.976751309462621e-05
aF6.9848256431387368e-05
aF6.9848256431415123e-05
aF6.9848256431415123e-05
aF6.9848256431387368e-05
aF5.2386192323505831e-05
aF4.3620920928244544e-05
aF8.6967927124259603e-06
aF5.2386192323547465e-05
aF6.9848256431415123e-05
aF5.2386192323547465e-05
aF5.238619232354573e-05
aF5.2386192323505831e-05
aF5.2386192323547465e-05
aF6.9848256431387368e-05
aF5.2386192323533587e-05
aF4.3620920928230666e-05
aF8.6967927125369826e-06
aF5.2386192323616854e-05
aF6.9848256431415123e-05
aF5.2386192323547465e-05
aF5.2386192323616854e-05
aF5.2386192323533587e-05
aF5.2386192323505831e-05
aF6.9848256431415123e-05
aF5.2386192323505831e-05
aF4.3620920928244544e-05
aF6.3228650429847377e-06
aF3.814262630608134e-05
aF5.3230762744438387e-05
aF5.2386192323505831e-05
aF5.2386192323561342e-05
aF5.2386192323561342e-05
aF5.2386192323505831e-05
aF6.9848256431415123e-05
aF5.2386192323561342e-05
aF4.3620920928244544e-05
aF2.6934948558210436e-06
aF1.6297926500652427e-05
aF4.3141570149063391e-06
aF2.5588201130632982e-05
aF5.2386192323561342e-05
aF5.2386192323505831e-05
aF5.2386192323505831e-05
aF9.3131008575164653e-05
aF6.9848256431415123e-05
aF6.8387377865519738e-05
aF6.2543863601938199e-05
aF6.9848256431415123e-05
aF7.8704832737086505e-05
aF7.3956977397759971e-06
aF5.962210647020294e-05
aF6.9848256431415123e-05
aF6.9848256431387368e-05
aF6.9848256431415123e-05
aF5.2386192323561342e-05
aF5.2386192323505831e-05
aF5.2386192323505831e-05
aF5.2386192323561342e-05
aF6.9848256431415123e-05
aF8.6967927125369826e-06
aF3.0861059704290206e-05
aF5.2386192323505831e-05
aF5.2386192323561342e-05
aF6.9848256431415123e-05
aF5.2386192323561342e-05
aF5.2386192323505831e-05
aF5.2386192323505831e-05
aF5.2386192323533587e-05
aF6.9848256431387368e-05
aF8.6967927125369826e-06
aF3.0153446648972793e-05
aF5.2386192323505831e-05
aF5.2386192323616854e-05
aF6.9848256431415123e-05
aF5.2386192323505831e-05
aF4.7638336984401342e-05
aF5.2386192323505831e-05
aF5.2386192323505831e-05
aF6.7474328761807367e-05
aF6.3228650429847377e-06
aF4.3620920928230666e-05
aF5.2386192323547465e-05
aF5.2386192323505831e-05
aF6.9848256431415123e-05
aF5.2386192323505831e-05
aF2.7779518979420548e-05
aF1.4129434879439629e-05
aF3.5951308457349285e-05
aF2.4469715978581164e-05
aF1.2485946492724054e-05
aF5.0742703936901279e-05
aF5.2386192323533587e-05
aF5.2386192323547465e-05
asg15
F1.4118556009682515
sg16
I-1
sg17
(lp115
F-0.34024333910934346
aF-0.20194953130352347
aF0.75443731168723427
aF0.34034837205830315
aF-1.3722064037233934
aF-0.55738187265136685
aF-0.21564652458751299
aF-0.14362615925887537
aF0.31538319877016779
aF-0.57618658654306176
aF-0.13376326557012316
aF-0.79224743652947105
aF-0.71948617674051685
aF-1.2796124209191237
aF0.10306889313398655
aF-0.36099689545196961
aF0.12249191284690211
aF-0.012426820305167072
aF-0.56639229327710716
aF0.11697315311773386
aF0.13994508100135614
aF-0.16981408307372339
aF0.041288907072476143
aF0.13814166790623894
aF1.0481339175641393
aF0.67172726525093773
aF0.0507809285716007
aF-1.0260447266220138
aF-0.24794329201199863
aF0.90504405542552135
aF-0.84532561387007443
aF0.96496018257790273
aF0.69874976626492313
aF-0.54510573027692677
aF1.0683582076357074
aF-0.29675249758806793
aF0.68383328722401238
aF-0.42980751445252546
aF-0.49287848319754268
aF-0.90471566954208404
aF-0.46506307163208277
aF0.33723092079829298
aF0.15219262870690958
aF0.93967676658211641
aF0.36514816235527109
aF-0.37986028647250697
aF-0.78538109339799966
aF-0.33031578956418528
aF-0.66550632116920883
aF0.70646914586101117
aF0.38703333449177812
aF-0.3414961156838035
aF1.1485686033431293
aF1.6177341302363795
aF-0.33449106514859633
aF-1.0044271679914933
aF-0.56733899372929042
aF-0.32518861683477962
aF-0.30344706849001551
aF0.086491429747891757
aF0.31140464435860243
aF-0.38499442586179244
aF0.6818891200090732
aF-0.63213066394952
aF0.4190144792191754
aF1.8276817606604496
aF-0.71391539735913412
aF-0.72322659931919364
aF-0.70237929776242225
aF0.40075194773995049
aF0.95382169573068309
aF-0.32233041409775998
aF-0.62932112263587092
aF0.75721339133414645
aF0.22896057257979469
aF0.11243227320174547
aF-0.8400037188011199
aF0.18282024818118317
aF0.60399959735348363
aF-1.0000057033937184
aF0.71153455362557017
aF0.67350422057500292
aF-0.33050046440418401
aF0.56239429248714068
aF0.78966212573201888
aF0.29055098314592059
aF0.40780062628441921
aF-0.076476779845723139
aF0.10020918185351725
aF-0.72016593232273951
aF0.93486332308797104
aF-0.56270103106071068
aF-0.39595224969454784
aF-0.78810200922367335
aF0.51097364630797804
aF-0.96554054359588393
aF-1.3066219209784544
aF-0.6634660488929347
aF-0.14952682928501046
aF-0.060647560124044424
asg7
F0.00093131008575192073
sg19
F0.070619329598312033
sbag1
(g10
g3
NtRp116
(dp117
g13
(lp118
F9.2155792279502435e-06
aF6.9116844210181938e-06
aF5.7552195766863434e-06
aF1.6036914829431481e-07
aF9.6899105117564943e-07
aF1.2919880683082141e-06
aF1.9560518655370451e-06
aF6.9116844209765604e-06
aF6.9116844210181938e-06
aF6.9116844209626827e-06
aF6.9116844210181938e-06
aF5.1837633157081342e-06
aF4.3164146825147576e-06
aF8.6057247200566067e-07
aF5.1837633157358898e-06
aF6.9116844210181938e-06
aF5.1837633157081342e-06
aF5.1837633157081342e-06
aF5.1837633157081342e-06
aF5.1837633157081342e-06
aF6.911684420973091e-06
aF5.1837633157081342e-06
aF4.3164146825147576e-06
aF8.6057247206117182e-07
aF5.1837633157289509e-06
aF6.9116844210181938e-06
aF5.1837633157358898e-06
aF5.1837633157081342e-06
aF5.1837633157081342e-06
aF5.1837633157081342e-06
aF6.9116844209765604e-06
aF5.1837633157358898e-06
aF4.3164146825147576e-06
aF6.2566555047993688e-07
aF3.7743217867758361e-06
aF5.2673359705046607e-06
aF5.1837633157358898e-06
aF5.1837633157081342e-06
aF5.1837633157081342e-06
aF5.1837633157358898e-06
aF6.9116844209626827e-06
aF5.1837633157081342e-06
aF4.3164146825095534e-06
aF2.6652900707996308e-07
aF1.6127263648968437e-06
aF4.2689815543672793e-07
aF2.5320255672978131e-06
aF5.1837633157081342e-06
aF5.1837633157081342e-06
aF5.1837633157081342e-06
aF9.2155792279502435e-06
aF6.9116844210181938e-06
aF6.7671263154212014e-06
aF6.1888938932830317e-06
aF6.9116844210181938e-06
aF7.788067935776688e-06
aF7.3182540927252404e-07
aF5.8997776822278247e-06
aF6.9116844209696215e-06
aF6.9116844209626827e-06
aF6.911684420973091e-06
aF5.1837633157081342e-06
aF5.1837633157358898e-06
aF5.1837633157081342e-06
aF5.1837633157358898e-06
aF6.9116844210181938e-06
aF8.6057247200566067e-07
aF3.0537899794735868e-06
aF5.1837633157081342e-06
aF5.1837633157358898e-06
aF6.9116844210181938e-06
aF5.1837633157081342e-06
aF5.1837633157081342e-06
aF5.1837633157081342e-06
aF5.1837633157081342e-06
aF6.9116844210181938e-06
aF8.6057247203341625e-07
aF2.9837696470802477e-06
aF5.1837633157081342e-06
aF5.1837633157081342e-06
aF6.9116844209765604e-06
aF5.1837633157358898e-06
aF4.7139494727121978e-06
aF5.1837633157081342e-06
aF5.1837633157081342e-06
aF6.6767774994785922e-06
aF6.2566555053544803e-07
aF4.3164146825147576e-06
aF5.1837633157081342e-06
aF5.1837633157081342e-06
aF6.9116844210181938e-06
aF5.1837633157358898e-06
aF2.7488627255545239e-06
aF1.398147926989779e-06
aF3.5574846284358586e-06
aF2.4213482677781784e-06
aF1.2355200582625514e-06
aF5.0211354469809066e-06
aF5.1837633157081342e-06
aF5.1837633157081342e-06
asg15
F-3.6827044601884369
sg16
I-1
sg17
(lp119
F-0.99508411402936803
aF-0.52368956984822401
aF0.88342382466930802
aF-0.94144525231593912
aF0.11804001691115214
aF-1.0443459491481237
aF-0.45685520823972159
aF0.079589597134193182
aF0.60171320760121616
aF-0.39639087418506519
aF-0.97617375335301904
aF-0.92873096798096511
aF-0.39903620929975442
aF0.44447271244834496
aF-0.18177701119501127
aF0.86428688392103159
aF0.46635753317288203
aF0.80399481136594331
aF0.88862297979726657
aF0.94252584763951985
aF-0.028698349701631602
aF0.83784418261914728
aF-0.27435503765440916
aF0.75840328260969481
aF0.043645951884811351
aF0.62668204349433432
aF0.078419892201100558
aF0.77230720820859389
aF0.8679431566100223
aF-0.52381863076099477
aF0.099491096900580292
aF-0.092152796508011628
aF-0.32001463670836178
aF-0.53253049552003484
aF-0.80562853032305404
aF0.823818391761448
aF0.15887676369877618
aF-0.61248160543595798
aF-0.57050826046356862
aF0.22080418891798337
aF0.43532563028311194
aF-0.69863020388804553
aF-0.0011932390900056796
aF0.05457279414730231
aF0.71001251520076714
aF-0.3417118583309588
aF0.13970419307943197
aF0.55792712519318255
aF0.31454781225172351
aF-0.44584100853860048
aF0.84779697250687236
aF0.55694120017323101
aF-0.45569953042067118
aF0.16922833614009072
aF-0.846995203715038
aF-0.84417936303748431
aF0.81622563405328896
aF-0.48518941225140044
aF0.053004858745498366
aF-0.21823075498623593
aF-0.021779275620168983
aF0.63855507434728309
aF-0.21481785822243324
aF0.54841051632085891
aF0.1608550566531142
aF0.59114430278166485
aF-0.39215286741688554
aF0.2440051239245479
aF-0.85277475980026096
aF-0.074208970115403491
aF-0.56681798267969752
aF-0.69924596578904163
aF0.48102737213295632
aF0.28034358226197986
aF-0.93636393925140204
aF0.93453260732857679
aF0.23039057214503567
aF0.14977726371615149
aF-0.72529971517564473
aF-0.87839518999260691
aF-0.083045326310525344
aF-0.11916039284657444
aF0.26156443769219845
aF-0.74030174859711695
aF-0.7881417211463938
aF0.092703121108277317
aF-0.31438090393739854
aF-0.35947432574340943
aF-0.51841557787749049
aF-0.91224624391840459
aF-0.73239480971239801
aF0.077514448532611899
aF-0.6334644874290507
aF-0.95730143805962942
aF0.52875499612113053
aF-0.84436724384298001
aF-0.67637637410208573
aF0.69604830097047454
aF-0.7286428312250427
aF-0.90430663800759603
asg7
F9.2155792279638069e-05
sg19
F0.70416267962149925
sbag1
(g10
g3
NtRp120
(dp121
g13
(lp122
F6.8990379085753784e-05
aF5.174278431430146e-05
aF4.3085168115325478e-05
aF1.2005678713400414e-06
aF7.2541354478872222e-06
aF9.6721805973171149e-06
aF1.464354614910679e-05
aF5.174278431430146e-05
aF5.174278431430146e-05
aF5.174278431430146e-05
aF5.174278431430146e-05
aF3.8807088235739973e-05
aF3.231387608648717e-05
aF6.44248392933644e-06
aF3.8807088235726095e-05
aF5.174278431430146e-05
aF3.8807088235781606e-05
aF3.8807088235726095e-05
aF3.8807088235781606e-05
aF3.8807088235739973e-05
aF5.1742784314329215e-05
aF3.8807088235726095e-05
aF3.231387608648717e-05
aF6.44248392933644e-06
aF3.8807088235726095e-05
aF5.1742784314329215e-05
aF3.8807088235781606e-05
aF3.8807088235781606e-05
aF3.8807088235726095e-05
aF3.8807088235736503e-05
aF5.174278431430146e-05
aF3.8807088235726095e-05
aF3.231387608648717e-05
aF4.6839056389025302e-06
aF2.825561849321024e-05
aF3.9432736281375114e-05
aF3.8807088235726095e-05
aF3.8807088235781606e-05
aF3.8807088235726095e-05
aF3.8807088235739973e-05
aF5.174278431430146e-05
aF3.8807088235781606e-05
aF3.231387608648717e-05
aF1.9953099834602028e-06
aF1.2073316340011075e-05
aF3.1958778548002442e-06
aF1.8955444841983748e-05
aF3.8807088235781606e-05
aF3.8807088235781606e-05
aF3.8807088235736503e-05
aF6.8990379085809295e-05
aF5.174278431430146e-05
aF5.0660582289419054e-05
aF4.633177418988943e-05
aF5.174278431430146e-05
aF5.8303634090123291e-05
aF5.4786477509116693e-06
aF4.416737014023564e-05
aF5.174278431430146e-05
aF5.1742784314315338e-05
aF5.174278431430146e-05
aF3.8807088235781606e-05
aF3.8807088235781606e-05
aF3.8807088235739973e-05
aF3.8807088235739973e-05
aF5.174278431430146e-05
aF6.44248392933644e-06
aF2.2861517775529805e-05
aF3.8807088235726095e-05
aF3.8807088235781606e-05
aF5.174278431430146e-05
aF3.8807088235726095e-05
aF3.8807088235739973e-05
aF3.8807088235726095e-05
aF3.8807088235781606e-05
aF5.174278431430146e-05
aF6.44248392933644e-06
aF2.2337326169685756e-05
aF3.8807088235781606e-05
aF3.8807088235726095e-05
aF5.1742784314315338e-05
aF3.8807088235781606e-05
aF3.5289931654913786e-05
aF3.8807088235726095e-05
aF3.8807088235739973e-05
aF4.998420602386755e-05
aF4.6839056389094691e-06
aF3.231387608648717e-05
aF3.8807088235781606e-05
aF3.8807088235726095e-05
aF5.174278431430146e-05
aF3.8807088235726095e-05
aF2.0578747879307357e-05
aF1.0466922709340132e-05
aF2.6632315455910049e-05
aF1.8126883916558256e-05
aF9.249445431347425e-06
aF3.7589610957677877e-05
aF3.8807088235781606e-05
aF3.8807088235781606e-05
asg15
F-0.78776680523073361
sg16
I-1
sg17
(lp123
F-0.49663570204255536
aF0.75739343781359303
aF0.18070785460382052
aF0.32660176893628734
aF-1.12043276605381
aF0.050625739082561641
aF-0.44487405761882526
aF-0.85982394960078523
aF-0.59524626696667171
aF0.96204450587192747
aF1.0540587742289054
aF-0.11921230251145816
aF-0.54100374694258446
aF-0.30757201034757559
aF-0.42012517722119369
aF-0.90644848320544413
aF-0.70391080761081526
aF-0.47755966798075106
aF0.8485505408952656
aF-0.056207871518037293
aF0.14107160807550909
aF-0.30850269347278753
aF-0.83462422029646965
aF-0.089696794030356811
aF-0.46906697171935341
aF0.1568538743217853
aF-1.3382535684162071
aF-0.84876725299906342
aF0.31729471376121049
aF0.018681107466951292
aF0.69955595587843333
aF0.18620414409491795
aF0.61604646289210718
aF1.0737589147181512
aF0.0045899397813157121
aF-0.43599081615478452
aF-0.13393497290860529
aF-0.54510778646821234
aF-0.23986515109003867
aF-0.12211043599599504
aF0.35081881839521506
aF0.63896902814808243
aF0.068340501443715895
aF1.3065103110242782
aF0.58617940996674811
aF1.4882989495518739
aF0.88318247687307516
aF-0.62931570487527488
aF-0.57523777209969951
aF0.01800095685541158
aF-0.86523015088286459
aF-0.71828921247066357
aF0.59534845011547222
aF0.67202659636111584
aF1.4966832488840449
aF-0.19029991378770558
aF-0.55479151880769706
aF-0.57351488669213713
aF1.0456085345143653
aF-0.072235842563405081
aF0.66360324630544476
aF-0.8056180007630398
aF-0.6190208986152459
aF-0.082360738493901742
aF-0.054491458160661449
aF0.42028972849046708
aF0.79726525584576913
aF-0.62398858343515218
aF0.23141246327564016
aF-0.66771616803506562
aF0.63386178774898772
aF0.30496525712459294
aF-0.11856537815919746
aF0.33586022802879001
aF0.71926112141097021
aF0.31686721741225388
aF-0.58691608314940469
aF0.13548074450290842
aF-0.75109816422676512
aF0.3834307396923497
aF0.12285743485842472
aF-0.53847017956316745
aF-0.37298315824613337
aF0.28710004620007357
aF-0.10238133809773844
aF0.58865228235947142
aF0.043824525395305243
aF1.2556370772086116
aF-0.7614283546266476
aF-0.29060763333311806
aF-0.3563149869355226
aF0.29475362597140303
aF-0.84353772735361854
aF-0.081500538236889186
aF-0.47269261784835814
aF-1.0900804200803735
aF-0.21629138185069569
aF1.0300967134086998
aF0.52603981675441291
aF-0.85352984557324274
asg7
F0.00068990379085755269
sg19
F-0.19313299013261528
sbag1
(g10
g3
NtRp124
(dp125
g13
(lp126
F-0.00017370999812171828
aF-0.00013028249859128871
aF-0.00010848359686621567
aF-3.0228945752108771e-06
aF-1.8265095390712638e-05
aF-2.4353460520987191e-05
aF-3.6870798620913803e-05
aF-0.00013028249859131646
aF-0.00013028249859129218
aF-0.00013028249859126095
aF-0.00013028249859129131
aF-9.7711873943473471e-05
aF-8.1362697649661753e-05
aF-1.622144835400352e-05
aF-9.7711873943468266e-05
aF-0.00013028249859126095
aF-9.7711873943362448e-05
aF-9.7711873943362448e-05
aF-9.7711873943473471e-05
aF-9.7711873943473471e-05
aF-0.00013028249859126095
aF-9.7711873943473471e-05
aF-8.1362697649633997e-05
aF-1.622144835400352e-05
aF-9.7711873943362448e-05
aF-0.00013028249859131646
aF-9.7711873943473471e-05
aF-9.7711873943473471e-05
aF-9.7711873943473471e-05
aF-9.7711873943362448e-05
aF-0.00013028249859126095
aF-9.7711873943473471e-05
aF-8.1362697649661753e-05
aF-1.1793546441096758e-05
aF-7.1144462466032898e-05
aF-9.928718520096913e-05
aF-9.7711873943473471e-05
aF-9.7711873943473471e-05
aF-9.7711873943473471e-05
aF-9.7711873943473471e-05
aF-0.00013028249859126095
aF-9.7711873943473471e-05
aF-8.1362697649689508e-05
aF-5.0239656319561732e-06
aF-3.0399249671297923e-05
aF-8.046860207056028e-06
aF-4.7727673503583645e-05
aF-9.7711873943473471e-05
aF-9.7711873943473471e-05
aF-9.7711873943473471e-05
aF-0.00017370999812171828
aF-0.00013028249859126095
aF-0.00012755763587565631
aF-0.00011665818501316316
aF-0.00013028249859126095
aF-0.0001468019788049002
aF-1.3794617497953077e-05
aF-0.00011120845958190184
aF-0.00013028249859128871
aF-0.00013028249859128871
aF-0.00013028249859126095
aF-9.7711873943470001e-05
aF-9.7711873943473471e-05
aF-9.7711873943473471e-05
aF-9.7711873943362448e-05
aF-0.00013028249859126095
aF-1.622144835400352e-05
aF-5.7562724867787907e-05
aF-9.7711873943473471e-05
aF-9.7711873943473471e-05
aF-0.00013028249859128871
aF-9.7711873943473471e-05
aF-9.7711873943362448e-05
aF-9.7711873943473471e-05
aF-9.7711873943473471e-05
aF-0.00013028249859128871
aF-1.6221448354114543e-05
aF-5.6242869489908642e-05
aF-9.7711873943473471e-05
aF-9.7711873943473471e-05
aF-0.00013028249859126095
aF-9.7711873943468266e-05
aF-8.8856070117659947e-05
aF-9.7711873943473471e-05
aF-9.7711873943362448e-05
aF-0.00012585459667838195
aF-1.1793546441096758e-05
aF-8.1362697649661753e-05
aF-9.7711873943473471e-05
aF-9.7711873943473471e-05
aF-0.00013028249859128871
aF-9.7711873943473471e-05
aF-5.181496757700188e-05
aF-2.6354531577787998e-05
aF-6.705716839257303e-05
aF-4.5641450486910706e-05
aF-2.3289061022668811e-05
aF-9.4646403388409794e-05
aF-9.7711873943473471e-05
aF-9.7711873943473471e-05
asg15
F-2.0831248813049483
sg16
I-1
sg17
(lp127
F-0.7439261924729873
aF0.051717340217877869
aF0.24335260429788452
aF0.74304069682437957
aF-0.56588557649618021
aF0.79628493978846115
aF-0.35833247209893648
aF0.39644095524796968
aF0.025438815135181779
aF-0.63069038993706683
aF0.0036887816573064947
aF-0.22274119768597397
aF-0.041270252391919011
aF0.13592325306182002
aF-0.0066161135504349631
aF0.53239402937360358
aF-1.4675053896731343
aF-1.0279514256281301
aF0.80803926717494279
aF0.86008910185711351
aF0.73208084715504174
aF-0.64724812151981137
aF0.41620985402204635
aF-0.4509488838765387
aF1.1540657494401152
aF-0.42090861363237814
aF0.085564690424188655
aF-0.54410212891334475
aF0.85924948753870733
aF-1.0035976311202235
aF0.73778473506051712
aF0.10548286523546545
aF0.19238180625157997
aF-0.46569128120630365
aF0.11751383131180358
aF-0.38933638839901075
aF-0.76857258418215291
aF0.8154770632122128
aF0.43409918642281486
aF-0.44593819698801174
aF0.83786548828170582
aF-0.88402415196184991
aF-0.83022807005346266
aF1.1464821740058306
aF0.71643182418421913
aF0.72455107622492687
aF-0.80285725794155394
aF-0.25152874976715872
aF-0.40951301321104128
aF0.64214095516031677
aF0.93096772764951374
aF-0.69124054181393202
aF0.010598189759580299
aF-0.6458152218541271
aF-0.82703474896227713
aF-1.4600937118582726
aF-0.59977374827241969
aF0.50444562891915334
aF0.14764879216024054
aF0.14296434221072032
aF0.89203314878166573
aF-0.026351617737245103
aF0.66069802665912936
aF-0.8392565503585756
aF-1.1227805761856524
aF-0.75100314646384791
aF0.17524818900247632
aF-0.17008803991695157
aF-0.80521718695639821
aF-0.51753855157454076
aF0.12847463580518989
aF-0.42816826393171248
aF1.270486086626788
aF0.61453159229916665
aF0.80340912939700559
aF-0.085962605569399331
aF1.2620597616294273
aF-0.69600060462427105
aF0.97680446577717417
aF0.48236795828899814
aF0.64843158609347684
aF-0.0089935820998268984
aF-0.49124507927850936
aF-0.78880710820846156
aF-1.1204018043554218
aF0.15364893892965709
aF0.61487580378044526
aF-0.14077858781239927
aF0.53301359955238592
aF-0.12490952003790708
aF-0.14279370475334033
aF0.51916586283852317
aF0.68569140508773119
aF-0.27036996552778697
aF-0.10927906731513451
aF0.5696034763557587
aF-0.32445584929505489
aF-0.83939479306471643
aF-0.47529360554861289
aF-0.78157095613208183
asg7
F-0.001737099981217216
sg19
F-0.3410371092022651
sbag1
(g10
g3
NtRp128
(dp129
g13
(lp130
F2.2327728966792248e-05
aF1.6745796725090717e-05
aF1.3943885639022824e-05
aF3.8854626388529212e-07
aF2.3476950310671874e-06
aF3.1302600413951609e-06
aF4.7391699228571671e-06
aF1.6745796725115003e-05
aF1.6745796725115003e-05
aF1.6745796725115003e-05
aF1.6745796725059492e-05
aF1.255934754385013e-05
aF1.0457914229322629e-05
aF2.0850158667373719e-06
aF1.255934754385013e-05
aF1.6745796725059492e-05
aF1.255934754385013e-05
aF1.2559347543822375e-05
aF1.255934754385013e-05
aF1.255934754385013e-05
aF1.6745796725059492e-05
aF1.2559347543794619e-05
aF1.0457914229267118e-05
aF2.0850158667373719e-06
aF1.255934754385013e-05
aF1.6745796725059492e-05
aF1.2559347543794619e-05
aF1.2559347543794619e-05
aF1.2559347543794619e-05
aF1.255934754385013e-05
aF1.6745796725059492e-05
aF1.255934754385013e-05
aF1.0457914229267118e-05
aF1.5158776773827043e-06
aF9.1445184077221242e-06
aF1.2761829399687841e-05
aF1.2559347543822375e-05
aF1.255934754385013e-05
aF1.255934754385013e-05
aF1.255934754385013e-05
aF1.6745796725059492e-05
aF1.2559347543822375e-05
aF1.0457914229267118e-05
aF6.4575294560220708e-07
aF3.9073525691657451e-06
aF1.034299209501377e-06
aF6.1346529832695396e-06
aF1.255934754385013e-05
aF1.2559347543822375e-05
aF1.255934754385013e-05
aF2.2327728966820004e-05
aF1.6745796725059492e-05
aF1.6395557839339603e-05
aF1.499460229631433e-05
aF1.6745796725087247e-05
aF1.8869119969955328e-05
aF1.773084359113497e-06
aF1.4294124524805163e-05
aF1.6745796725087247e-05
aF1.6745796725059492e-05
aF1.6745796725087247e-05
aF1.255934754381858e-05
aF1.255934754385013e-05
aF1.2559347543794619e-05
aF1.255934754385013e-05
aF1.6745796725059492e-05
aF2.0850158667373719e-06
aF7.3987964614996571e-06
aF1.255934754385013e-05
aF1.2559347543794619e-05
aF1.6745796725059492e-05
aF1.2559347543822375e-05
aF1.2559347543794619e-05
aF1.2559347543794619e-05
aF1.255934754385013e-05
aF1.6745796725115003e-05
aF2.0850158667651275e-06
aF7.2291495012422047e-06
aF1.255934754385013e-05
aF1.2559347543822375e-05
aF1.6745796725087247e-05
aF1.2559347543794619e-05
aF1.1421071165140795e-05
aF1.2559347543822375e-05
aF1.255934754385013e-05
aF1.617665853573258e-05
aF1.5158776773827043e-06
aF1.0457914229267118e-05
aF1.2559347543822375e-05
aF1.2559347543822375e-05
aF1.6745796725059492e-05
aF1.2559347543794619e-05
aF6.660011311887537e-06
aF3.3874667231537092e-06
aF8.6191600790902489e-06
aF5.8665013363823348e-06
aF2.9934479766624555e-06
aF1.2165328797358876e-05
aF1.2559347543822375e-05
aF1.255934754385013e-05
asg15
F-3.176922344792616
sg16
I-1
sg17
(lp131
F0.22205497877426764
aF-0.027669848722525626
aF0.70131825447256091
aF-0.355577228491955
aF-0.043452460492185908
aF-0.25295110905876877
aF-0.12582954054944354
aF-0.31786566488089602
aF0.37664847436715049
aF-0.40154193621702233
aF-0.63435191600375773
aF-0.6734945184346276
aF0.49424896582972261
aF0.86850130570875994
aF-0.90304995845191272
aF0.649936840531813
aF0.85364603412329143
aF-0.10543887043047216
aF-0.95861383430123837
aF0.86227246189590201
aF-0.92705172241953948
aF-0.30019820731181501
aF-0.55420304051019742
aF0.40342792184749154
aF-0.57992287084155103
aF0.88785290852010912
aF0.49936226592808108
aF0.34643882676052901
aF-0.27415853732299333
aF0.66486751277106715
aF-0.88624962763308435
aF0.80064565999923054
aF-0.50572051258784989
aF0.79678271065294115
aF-0.80570369892672555
aF-0.76722162788802994
aF-0.21559701848355076
aF-0.74614995726980227
aF-0.61511022256873693
aF0.61928685621507806
aF0.61618018331917568
aF-0.1591817777199607
aF0.79836573438326497
aF0.098100899834637253
aF0.48039156254520993
aF-0.78841520196493964
aF-0.52710952162003488
aF-0.57681022055957709
aF0.14567933520932583
aF-0.95053374453276296
aF-0.55235462987177719
aF-0.74334425921317149
aF0.042351284268204774
aF-0.2907081157694969
aF0.21341949041277228
aF-0.87017094685364116
aF-0.91048041785629785
aF0.65340390922336233
aF-0.063056568667813617
aF1.0250997282424223
aF-0.20838378956961823
aF0.00086650162595119148
aF0.65200768936983755
aF-0.49890353889669398
aF-0.88783753485513206
aF0.97240082419629803
aF0.25362321958789474
aF-0.72048164978591767
aF-0.80258938717774553
aF0.37340996345836919
aF-0.52483574981291159
aF0.24793326764050147
aF-0.33628577204244486
aF0.35152394644357465
aF-0.99286288842233439
aF0.29001556416223778
aF-0.12990479783606565
aF-0.99219563834577951
aF0.83123265172868577
aF0.22535098372949222
aF-0.21868402897742445
aF0.40997141597608389
aF-0.68520006421164437
aF-0.23370813499656348
aF-0.89507538182057511
aF0.13849348262757563
aF-0.86278176767406622
aF-0.90559408311159451
aF-0.22397242077387272
aF0.092228979831817146
aF0.71665076050409315
aF0.32969525635906849
aF0.98780236547102773
aF-0.18073639079066894
aF0.096250531635164158
aF0.36284660511442102
aF0.29083920549451719
aF-0.14231418225620632
aF0.22964654558052852
aF0.78874972079593852
asg7
F0.0002232772896678856
sg19
F0.28741955260708385
sbag1
(g10
g3
NtRp132
(dp133
g13
(lp134
F-0.00011798553074421347
aF-8.8489148058146228e-05
aF-7.3683120670686719e-05
aF-2.0531795791312035e-06
aF-1.2405831541495438e-05
aF-1.654110872195691e-05
aF-2.5043007260805439e-05
aF-8.8489148058167044e-05
aF-8.8489148058173983e-05
aF-8.8489148058146228e-05
aF-8.8489148058170514e-05
aF-6.6366861043630487e-05
aF-5.5262340503015039e-05
aF-1.1017766473941926e-05
aF-6.6366861043623548e-05
aF-8.8489148058146228e-05
aF-6.6366861043609671e-05
aF-6.6366861043637426e-05
aF-6.6366861043665182e-05
aF-6.6366861043609671e-05
aF-8.8489148058146228e-05
aF-6.6366861043609671e-05
aF-5.5262340503015039e-05
aF-1.1017766473830903e-05
aF-6.6366861043665182e-05
aF-8.8489148058173983e-05
aF-6.6366861043637426e-05
aF-6.6366861043609671e-05
aF-6.6366861043609671e-05
aF-6.6366861043665182e-05
aF-8.8489148058146228e-05
aF-6.6366861043609671e-05
aF-5.5262340503015039e-05
aF-8.0102921607982935e-06
aF-4.8322015165136456e-05
aF-6.7436827866529381e-05
aF-6.6366861043665182e-05
aF-6.6366861043665182e-05
aF-6.6366861043665182e-05
aF-6.6366861043630487e-05
aF-8.8489148058146228e-05
aF-6.6366861043665182e-05
aF-5.5262340503015039e-05
aF-3.4123266244578954e-06
aF-2.0647467880247072e-05
aF-5.4655062036168545e-06
aF-3.241710293244715e-05
aF-6.6366861043609671e-05
aF-6.6366861043609671e-05
aF-6.6366861043665182e-05
aF-0.00011798553074426898
aF-8.8489148058146228e-05
aF-8.6638394634741545e-05
aF-7.9235380940970157e-05
aF-8.8489148058146228e-05
aF-9.9709340687814674e-05
aF-9.369439206152741e-06
aF-7.5533874094091402e-05
aF-8.8489148058173983e-05
aF-8.8489148058146228e-05
aF-8.8489148058146228e-05
aF-6.6366861043665182e-05
aF-6.6366861043665182e-05
aF-6.6366861043665182e-05
aF-6.6366861043609671e-05
aF-8.8489148058173983e-05
aF-1.101776647391417e-05
aF-3.9097166070145573e-05
aF-6.6366861043665182e-05
aF-6.6366861043609671e-05
aF-8.8489148058173983e-05
aF-6.6366861043665182e-05
aF-6.6366861043609671e-05
aF-6.6366861043609671e-05
aF-6.6366861043665182e-05
aF-8.8489148058146228e-05
aF-1.1017766473886415e-05
aF-3.8200707380697807e-05
aF-6.6366861043665182e-05
aF-6.6366861043665182e-05
aF-8.8489148058167044e-05
aF-6.6366861043665182e-05
aF-6.035191241748894e-05
aF-6.6366861043665182e-05
aF-6.6366861043665182e-05
aF-8.5481673745113618e-05
aF-8.0102921607982935e-06
aF-5.5262340503015039e-05
aF-6.6366861043665182e-05
aF-6.6366861043630487e-05
aF-8.8489148058146228e-05
aF-6.6366861043627018e-05
aF-3.5193233067554175e-05
aF-1.7900255767311357e-05
aF-4.5545885029918409e-05
aF-3.1000119842583551e-05
aF-1.5818158165981089e-05
aF-6.4284763442279402e-05
aF-6.6366861043609671e-05
aF-6.6366861043665182e-05
asg15
F-1.0522670424641269
sg16
I-1
sg17
(lp135
F-0.42211799201983363
aF-0.42196136675107859
aF0.43671570480010902
aF-0.56626163772873384
aF0.80912096068154649
aF0.69109678631430083
aF1.3001368946747489
aF-0.054323987777473305
aF-0.20425011746818034
aF0.99952461076726562
aF-0.0091726785745951129
aF0.058548698408990185
aF-1.0591919175004101
aF-0.83592715503612935
aF0.078415659387697692
aF-1.0122503981846966
aF0.26369567831518392
aF0.1839133033860661
aF1.0003796466756651
aF0.28071521515740078
aF0.57636015223061332
aF0.48609908928799778
aF0.35871921270582741
aF1.2730832523477604
aF-1.2206436513182
aF0.15124515894687401
aF0.17518209765900936
aF0.39882974410492783
aF0.37284105314928168
aF0.87596789339355419
aF-0.72938879037991489
aF-0.33708386385993599
aF-0.38135547299847
aF-0.51253481112101384
aF-0.67338584822826009
aF-0.29372714532520516
aF-1.2329909818495588
aF-0.66749686882019899
aF1.0153441159526206
aF0.034916429377109232
aF-0.29406158951592481
aF0.8275993983174581
aF-0.40423377328170612
aF-0.13751922711843387
aF0.15181687903025651
aF-0.34724791096768493
aF-0.61077670734791467
aF-0.44446500627595692
aF-0.31699379607473127
aF0.63290236618553464
aF-0.52801660287422891
aF0.86089211615459738
aF-0.41470068084951611
aF-0.1145939831331777
aF-1.297276807843369
aF-0.97856847080899156
aF0.15008062218548723
aF0.26540657163970366
aF0.18713503892306166
aF-0.26857932171477245
aF0.33261463312356493
aF-0.83851944966628178
aF1.0812133463263534
aF-0.80471460612936241
aF-0.32541495429042583
aF0.16483868018367898
aF-0.19418390640731184
aF0.44020727628524542
aF-0.66090004076366715
aF-0.41918842173509135
aF0.10331218681050552
aF0.95354438954364329
aF0.38726560156849132
aF0.42266770386425134
aF0.79508941652562826
aF-0.36911981531328431
aF0.35907908569784558
aF0.6631897207316042
aF-0.51942354356617049
aF-0.69197429749885342
aF0.053196080450107201
aF0.53352950153734469
aF-0.86474401801418233
aF1.3616479553826735
aF1.1877209896770726
aF-0.555922755399891
aF0.68688536240825426
aF-0.9933694256028367
aF0.5862168397263563
aF-0.041588035770485823
aF-0.82359417997265616
aF0.019708954828333784
aF0.36506151183688357
aF0.27760251935374164
aF1.2856633085625073
aF0.30112306386982213
aF-0.83247808519072752
aF-0.34627061307746659
aF0.37986993976630573
aF-0.82354380861338949
asg7
F-0.0011798553074422644
sg19
F-0.65752950199612015
sbag1
(g10
g3
NtRp136
(dp137
g13
(lp138
F6.4385931885846404e-05
aF4.8289448914357047e-05
aF4.0209645697286689e-05
aF1.1204414617216329e-06
aF6.7699913675056678e-06
aF9.0266551565632014e-06
aF1.3666229660092011e-05
aF4.8289448914357047e-05
aF4.8289448914329292e-05
aF4.8289448914384803e-05
aF4.8289448914384803e-05
aF3.6217086685774724e-05
aF3.0157234272909506e-05
aF6.0125098158003709e-06
aF3.6217086685774724e-05
aF4.8289448914357047e-05
aF3.6217086685774724e-05
aF3.6217086685774724e-05
aF3.6217086685774724e-05
aF3.6217086685774724e-05
aF4.8289448914384803e-05
aF3.6217086685774724e-05
aF3.0157234273020528e-05
aF6.0125098158003709e-06
aF3.6217086685774724e-05
aF4.8289448914370925e-05
aF3.6217086685774724e-05
aF3.6217086685774724e-05
aF3.6217086685774724e-05
aF3.6217086685774724e-05
aF4.8289448914384803e-05
aF3.6217086685774724e-05
aF3.0157234273020528e-05
aF4.3712997873646131e-06
aF2.6369826515049155e-05
aF3.6800978715167965e-05
aF3.6217086685774724e-05
aF3.6217086685774724e-05
aF3.6217086685774724e-05
aF3.6217086685774724e-05
aF4.8289448914384803e-05
aF3.6217086685774724e-05
aF3.0157234273020528e-05
aF1.8621421475906175e-06
aF1.1267538080006467e-05
aF2.9825836094232727e-06
aF1.7690350402943533e-05
aF3.6217086685774724e-05
aF3.6217086685774724e-05
aF3.6217086685774724e-05
aF6.4385931885829056e-05
aF4.8289448914384803e-05
aF4.72794735122406e-05
aF4.3239571903663787e-05
aF4.8289448914329292e-05
aF5.4412424789790359e-05
aF5.1130004732335976e-06
aF4.1219621099486403e-05
aF4.8289448914384803e-05
aF4.8289448914370925e-05
aF4.8289448914329292e-05
aF3.6217086685774724e-05
aF3.6217086685774724e-05
aF3.6217086685774724e-05
aF3.6217086685774724e-05
aF4.8289448914384803e-05
aF6.0125098158003709e-06
aF2.1335730369997918e-05
aF3.6217086685774724e-05
aF3.6217086685774724e-05
aF4.8289448914329292e-05
aF3.6217086685774724e-05
aF3.6217086685774724e-05
aF3.6217086685774724e-05
aF3.6217086685774724e-05
aF4.8289448914329292e-05
aF6.0125098158142487e-06
aF2.0846523534595596e-05
aF3.6217086685774724e-05
aF3.6217086685774724e-05
aF4.8289448914329292e-05
aF3.6217086685774724e-05
aF3.2934666628847697e-05
aF3.6217086685774724e-05
aF3.6217086685774724e-05
aF4.6648238885893534e-05
aF4.3712997873646131e-06
aF3.0157234273020528e-05
aF3.6217086685774724e-05
aF3.6217086685774724e-05
aF4.8289448914329292e-05
aF3.6217086685774724e-05
aF1.9205313506132082e-05
aF9.7683558424876971e-06
aF2.4854863411805095e-05
aF1.6917087985790502e-05
aF8.6321335150962852e-06
aF3.5080864358383312e-05
aF3.6217086685774724e-05
aF3.6217086685774724e-05
asg15
F0.77148078786650298
sg16
I-1
sg17
(lp139
F-0.4617680996595272
aF0.18834671408260148
aF-0.84196337560952683
aF0.81045019672185281
aF1.1261686239386488
aF-0.72721298064138362
aF-0.32188674174096599
aF-0.21988977494009659
aF-0.69823955534516169
aF-0.43002465939914986
aF-0.36736250833739076
aF-0.35822602982329554
aF-1.1108861147305273
aF-0.29494069436383563
aF0.74859763816692615
aF0.19121317125571288
aF0.31578506481733487
aF-0.1263467087752857
aF0.95677832118278439
aF0.46320764316810958
aF0.38317093410561626
aF-0.25458255136932584
aF-0.26169654940094322
aF0.5611182010928133
aF0.74298354352990581
aF0.042370433629196853
aF0.21667142192536187
aF0.16300766544726936
aF0.31460972602797299
aF-0.42386422724331907
aF0.26717165463030951
aF-0.048063515439182525
aF0.92079728512948189
aF-0.78862782256377595
aF-0.58716348947125119
aF-0.61071318481248893
aF-0.89758595324348278
aF0.98459683441343382
aF-0.84206635024781151
aF0.60813020294457421
aF0.44520037090966819
aF0.80509413144549369
aF0.48527704085183471
aF-1.3374653485880184
aF0.34636724232999261
aF-0.91060400043382106
aF0.064324098949769093
aF0.48755463642103886
aF-0.28358897406385508
aF-0.72202418510101063
aF0.030796174418612095
aF0.39978752337422835
aF-0.59038206079886302
aF-0.95533814337050049
aF-0.5546268848805066
aF-0.15026617801196984
aF-1.4147002886021456
aF0.85118565440414473
aF0.47707631309553894
aF-0.049598954952502279
aF-0.72258960994052224
aF-0.38087155970074127
aF0.98635473112758898
aF-0.27530072145375861
aF-0.84518553565149301
aF-0.39575907772705826
aF0.41057099883945813
aF-0.26518735559802215
aF0.87018748020234982
aF0.9409877428764738
aF0.62872831730568524
aF-0.3069009402308025
aF-0.18951361098909039
aF0.53632498122506389
aF-0.071935293132215361
aF-0.71045987229166396
aF-0.10294388742411152
aF0.21037418617355547
aF-0.34304739956981178
aF-0.77546979931477933
aF0.8632446465731054
aF-0.56717558471485752
aF0.268893030394388
aF-0.24717553474947757
aF-0.25394772542475968
aF0.94407809257682163
aF0.6456389546089053
aF-0.53747285179875481
aF-0.48713102823496079
aF-0.56047460371843016
aF0.70938237739942878
aF-0.35687123152079758
aF0.23821480398641295
aF-0.24820562882288658
aF0.079075643832207637
aF1.3646889389942658
aF1.4382582425766806
aF0.16491350297072996
aF0.52918076775951295
aF0.4389704539541166
asg7
F0.00064385931885827365
sg19
F-0.64060285100235215
sbag1
(g10
g3
NtRp140
(dp141
g13
(lp142
F-6.4917272237646761e-05
aF-4.8687954178228132e-05
aF-4.0541472956290292e-05
aF-1.129687825701664e-06
aF-6.825860242587467e-06
aF-9.1011469901813857e-06
aF-1.3779009254366592e-05
aF-4.8687954178228132e-05
aF-4.8687954178228132e-05
aF-4.8687954178228132e-05
aF-4.8687954178228132e-05
aF-3.6515965633698855e-05
aF-3.0406104717162208e-05
aF-6.0621276280481418e-06
aF-3.6515965633698855e-05
aF-4.8687954178228132e-05
aF-3.6515965633643344e-05
aF-3.6515965633698855e-05
aF-3.6515965633698855e-05
aF-3.6515965633698855e-05
aF-4.8687954178228132e-05
aF-3.6515965633643344e-05
aF-3.0406104717189963e-05
aF-6.0621276280481418e-06
aF-3.6515965633698855e-05
aF-4.868795417811711e-05
aF-3.6515965633698855e-05
aF-3.6515965633698855e-05
aF-3.6515965633698855e-05
aF-3.6515965633698855e-05
aF-4.8687954178228132e-05
aF-3.6515965633671099e-05
aF-3.0406104717189963e-05
aF-4.4073736298333444e-06
aF-2.658744164441007e-05
aF-3.710467619072455e-05
aF-3.6515965633698855e-05
aF-3.6515965633698855e-05
aF-3.6515965633698855e-05
aF-3.6515965633643344e-05
aF-4.8687954178228132e-05
aF-3.6515965633698855e-05
aF-3.0406104717162208e-05
aF-1.8775093441059099e-06
aF-1.1360522641612469e-05
aF-3.0071971698353295e-06
aF-1.7836338769283699e-05
aF-3.6515965633671099e-05
aF-3.6515965633671099e-05
aF-3.6515965633671099e-05
aF-6.4917272237632884e-05
aF-4.8687954178228132e-05
aF-4.7669644025472024e-05
aF-4.3596403414447593e-05
aF-4.8687954178228132e-05
aF-5.4861459479305097e-05
aF-5.1551951482653458e-06
aF-4.1559783108997828e-05
aF-4.8687954178228132e-05
aF-4.8687954178228132e-05
aF-4.8687954178228132e-05
aF-3.6515965633671099e-05
aF-3.6515965633698855e-05
aF-3.6515965633643344e-05
aF-3.6515965633643344e-05
aF-4.8687954178228132e-05
aF-6.0621276280481418e-06
aF-2.1511801976736855e-05
aF-3.6515965633698855e-05
aF-3.6515965633643344e-05
aF-4.8687954178228132e-05
aF-3.6515965633671099e-05
aF-3.6515965633643344e-05
aF-3.6515965633643344e-05
aF-3.6515965633643344e-05
aF-4.8687954178228132e-05
aF-6.0621276281036529e-06
aF-2.1018557996549392e-05
aF-3.6515965633671099e-05
aF-3.6515965633671099e-05
aF-4.8687954178228132e-05
aF-3.6515965633671099e-05
aF-3.320645763726926e-05
aF-3.6515965633698855e-05
aF-3.6515965633671099e-05
aF-4.7033200179957824e-05
aF-4.4073736298333444e-06
aF-3.0406104717162208e-05
aF-3.6515965633698855e-05
aF-3.6515965633671099e-05
aF-4.8687954178228132e-05
aF-3.6515965633643344e-05
aF-1.9363803998334594e-05
aF-9.8489685086411427e-06
aF-2.5059976415220397e-05
aF-1.7056695058581539e-05
aF-8.7033695868043992e-06
aF-3.5370366711862111e-05
aF-3.6515965633671099e-05
aF-3.6515965633698855e-05
asg15
F1.3231853558057038
sg16
I-1
sg17
(lp143
F0.1681155319426634
aF0.15811797055266452
aF0.59542787991845325
aF-0.23023148178702341
aF-0.66917399023818647
aF-0.12568619819097945
aF-0.79018281853628425
aF-0.341662932800396
aF0.10051945019979459
aF0.52030818775030496
aF0.83995474037159623
aF-0.66499898617459019
aF-0.30321609598547222
aF0.3336333804278887
aF-0.53795903397960343
aF0.34250169044600587
aF-0.36496728382163612
aF-0.53575737587701355
aF0.6098075522076194
aF-0.96913412265882171
aF0.93558599536058507
aF0.35493162990805466
aF0.050387769813081712
aF-0.43207710372127389
aF-0.99762599672650376
aF-1.0064338455975852
aF0.70527673422469583
aF0.77436094982580372
aF-0.80189557301273329
aF0.8033007671090906
aF0.46129652464659782
aF0.13407781387154474
aF-0.21767918330720151
aF0.28261006147757628
aF0.76009602891182348
aF-0.21418909370348899
aF1.1307371268554427
aF0.64348613344355043
aF-0.80362217095872146
aF-0.47695293453773974
aF0.076149241416747712
aF-1.0337231598541894
aF0.71602419557277519
aF-0.60081181108539883
aF-0.46037055684137768
aF0.29327255301649374
aF1.1572766683083646
aF-0.040156089891756078
aF-0.11322836251934372
aF0.076083659392527467
aF0.061868875244386438
aF0.60698801523926316
aF-1.2116489841335101
aF0.6863377542540392
aF-0.35775956988198426
aF1.2969624500391708
aF0.36130024680957307
aF0.035365484150961933
aF0.58574873815669914
aF-0.62369862531774178
aF-0.35842252085408627
aF0.12423448675362016
aF-1.0469326745762519
aF0.49274825895002855
aF-0.29502058293138489
aF0.11400954170035335
aF0.35178735112297815
aF-0.66669082734720331
aF0.92556946259471218
aF0.44584966417746713
aF0.19267850770211981
aF0.11848047050825013
aF-0.34603083828870468
aF-0.45370505316213849
aF0.27263019595781013
aF-0.68882811350141415
aF-0.68523141880330751
aF0.24850107980676159
aF0.023132410611317818
aF-0.11954568546299583
aF-0.58535386946587098
aF-0.24924433057373721
aF0.54492287511595761
aF0.74387310714533295
aF-0.17999234355419932
aF-0.89647582545306548
aF0.72431921145840583
aF1.1808539068524044
aF-0.56903218550295587
aF-0.17081688215338955
aF-0.22093782368259607
aF0.28175317450733045
aF0.20013780631216954
aF-0.92798759183845303
aF-0.50326363651211481
aF-1.1632078194064723
aF0.79228707588475378
aF-0.66268785863346802
aF0.14780564502199747
aF0.84231906926418865
asg7
F-0.00064917272237635334
sg19
F-0.55564397355970851
sbag1
(g10
g3
NtRp144
(dp145
g13
(lp146
F0.00014921150995406141
aF0.00011190863246546279
aF9.3184050824202114e-05
aF2.596572844792977e-06
aF1.568915141425542e-05
aF2.0918868552377567e-05
aF3.1670874416689365e-05
aF0.0001119086324655183
aF0.0001119086324655183
aF0.0001119086324655183
aF0.00011190863246546279
aF8.3931474349124846e-05
aF6.9888038118137707e-05
aF1.3933721885406314e-05
aF8.3931474349152602e-05
aF0.0001119086324655183
aF8.3931474349152602e-05
aF8.3931474349152602e-05
aF8.3931474349152602e-05
aF8.3931474349152602e-05
aF0.00011190863246546279
aF8.3931474349152602e-05
aF6.9888038118137707e-05
aF1.3933721885406314e-05
aF8.3931474349138724e-05
aF0.00011190863246546279
aF8.3931474349152602e-05
aF8.3931474349124846e-05
aF8.3931474349124846e-05
aF8.3931474349152602e-05
aF0.0001119086324655183
aF8.3931474349138724e-05
aF6.9888038118137707e-05
aF1.0130291239418554e-05
aF6.1110890473836665e-05
aF8.5284617944311747e-05
aF8.3931474349152602e-05
aF8.3931474349138724e-05
aF8.3931474349152602e-05
aF8.3931474349152602e-05
aF0.0001119086324655183
aF8.3931474349152602e-05
aF6.9888038118137707e-05
aF4.3154309250503786e-06
aF2.6112014241963521e-05
aF6.9120037698988668e-06
aF4.099659378883902e-05
aF8.3931474349041579e-05
aF8.3931474349138724e-05
aF8.3931474349124846e-05
aF0.00014921150995400589
aF0.0001119086324655183
aF0.00010956805976036765
aF0.00010020576893976507
aF0.00011190863246546279
aF0.00012609835449051143
aF1.1849149319953511e-05
aF9.5524623529352759e-05
aF0.0001119086324655183
aF0.0001119086324655183
aF0.00011190863246546279
aF8.3931474349124846e-05
aF8.3931474349138724e-05
aF8.3931474349138724e-05
aF8.3931474349124846e-05
aF0.0001119086324655183
aF1.3933721885406314e-05
aF4.944459839650861e-05
aF8.3931474349152602e-05
aF8.3931474349152602e-05
aF0.00011190863246546279
aF8.3931474349152602e-05
aF8.3931474349152602e-05
aF8.3931474349041579e-05
aF8.3931474349124846e-05
aF0.0001119086324655183
aF1.3933721885406314e-05
aF4.8310883492469481e-05
aF8.3931474349152602e-05
aF8.3931474349138724e-05
aF0.00011190863246546279
aF8.3931474349152602e-05
aF7.6324613057371371e-05
aF8.3931474349152602e-05
aF8.3931474349152602e-05
aF0.00010810520181958605
aF1.0130291239529576e-05
aF6.9888038118170667e-05
aF8.3931474349152602e-05
aF8.3931474349152602e-05
aF0.0001119086324655183
aF8.3931474349152602e-05
aF4.4507452846592743e-05
aF2.263772663269048e-05
aF5.7600031416082942e-05
aF3.9204592811481476e-05
aF2.0004582339416821e-05
aF8.1298330055837309e-05
aF8.3931474349124846e-05
aF8.3931474349152602e-05
asg15
F0.81363462977799705
sg16
I-1
sg17
(lp147
F0.93817829451445844
aF0.80609533660488053
aF0.28851049820133123
aF-0.35040058090872267
aF-1.0558238342707638
aF0.43804386889472702
aF0.46719568628579283
aF0.28596021189515153
aF0.25746280171872782
aF0.48566138966035421
aF-0.75768986005328098
aF0.19864263420973649
aF0.70643620861361389
aF-0.14244253904618226
aF0.47012051321823939
aF0.39225227375254756
aF0.53438616005549422
aF-0.8694828425294111
aF0.93791178329232339
aF0.9210701789319371
aF-0.7083720714281655
aF0.26856222093182686
aF-0.65565394257150911
aF-0.20765923729537761
aF-0.027795047851689892
aF-0.87232329668356501
aF-0.38803842979086395
aF0.23129876869267185
aF0.22631930513466036
aF0.30717851969698878
aF-0.43808113284909611
aF-0.027434400937750184
aF-0.91219302205031139
aF-1.2018584351772976
aF-0.48273627440616435
aF0.082850662995301333
aF0.35205395062694678
aF0.10947885200806239
aF-0.6535857799352851
aF-0.66285359629103091
aF0.31706162267219851
aF0.80097330660853783
aF-0.53660467797172062
aF-1.3820641504136668
aF0.14523272228509027
aF0.85296047956176069
aF-0.17976013628271301
aF-1.1192401041248268
aF0.061709408805017171
aF0.17826644998709074
aF0.42508327060465056
aF0.27396559408690724
aF0.41563482142523245
aF-0.91798298370598608
aF-1.0293375820925557
aF0.97976775096502045
aF-1.1399958984734524
aF-0.90967448034571996
aF-0.48689239645363092
aF0.10206233386193982
aF0.56862941246947363
aF0.2490637029682258
aF-0.10056592658979963
aF0.028106116094622303
aF-0.1940012952827197
aF-0.19612608275453744
aF-0.72308068562876038
aF-1.0104869978941118
aF-0.90009574407096582
aF-0.80640370570869391
aF0.89213755586667187
aF-0.47879227843351785
aF-0.60677987496775621
aF-1.0733375018405948
aF0.16358744867650263
aF-0.43125519635335013
aF-0.80462312142904002
aF-0.096469777135354137
aF0.91148435638143943
aF0.080862921656028236
aF0.7281271231158909
aF-0.47155523427845097
aF0.24038040857528942
aF-0.62116978521219934
aF0.6933643455942905
aF0.77736110123210966
aF0.35317273721553649
aF0.012648576054916989
aF0.61346504612965713
aF-0.48962651391708917
aF0.19650087670948324
aF-0.27072099425462709
aF0.16194784300855999
aF0.63861006667446385
aF0.17078166178378767
aF0.79007301724788881
aF-0.76355059671675185
aF-0.12055632302495468
aF-0.24034227790708534
aF0.35815567538280618
asg7
F0.0014921150995402289
sg19
F-0.31888375680822922
sbasS'o_layer'
p148
(lp149
g1
(g10
g3
NtRp150
(dp151
g13
(lp152
F-6.4229476437471789e-06
aF-5.4912385327732238e-06
aF-5.191567899798244e-06
aF-6.3724458202463197e-06
aF-4.2388570653528745e-08
aF-6.354571228939232e-06
aF-6.3634986531835303e-06
aF-6.3199337902997144e-06
aF-4.8523141359252397e-06
aF-7.3242316855903766e-07
aF-2.1070340328055437e-07
aF-3.459055491372709e-06
aF-2.074712945887569e-06
aF-5.9942948382740724e-09
aF-5.6339816455475145e-06
aF-6.4212875581703618e-06
aF-2.8779105432086283e-08
aF-4.6699359340651725e-06
aF-4.2366752195655e-06
aF-4.7362058770428206e-06
aF-1.6201336512366993e-06
aF-6.3937317638096403e-06
aF-7.3769416397695409e-07
aF-6.4159239336891716e-06
aF-5.1687814891232531e-06
aF-1.5773673678332045e-07
aF-2.0098180066874249e-06
aF-7.1192760719984705e-07
aF-2.5741406445289883e-07
aF-1.6635966868516761e-06
aF-4.3959806075299923e-06
aF-5.0765519505890921e-06
aF-4.4541081354321221e-06
asg15
F-4.8139784615364221
sg16
I-1
sg17
(lp153
F-0.37790789407491038
aF-2.008657870984849
aF-1.0147572745364124
aF-0.58415036907127393
aF-0.75745037366014245
aF-0.25633280914318851
aF-0.40278579985878843
aF-1.1163146313164514
aF0.075582818081508962
aF1.6332080713575539
aF-0.77773913764642466
aF-0.42121723128937244
aF0.59971487971418291
aF-0.64475973475270298
aF0.95682017463241886
aF-0.0060818683881669559
aF0.46805350160087278
aF-0.31950970944401602
aF-0.21931663035957055
aF1.1493273404424029
aF1.2706816258578066
aF-1.228012856818306
aF1.0451098561885235
aF-0.63692994279816506
aF0.20092282571926062
aF0.17676773441163496
aF2.1535705989719456
aF-0.60414571355401969
aF0.32946941748040542
aF-1.34638304621909
aF-2.3298307921028649
aF0.43099524054810384
aF1.3353344535500289
asg7
F-6.4283653169500224e-05
sg19
F-0.25134781978622894
sbag1
(g10
g3
NtRp154
(dp155
g13
(lp156
F-0.00012615009636141039
aF-0.00010785083554976094
aF-0.00010196514546634283
aF-0.00012515821377878655
aF-8.3253399671759376e-07
aF-0.00012480714733009712
aF-0.00012498248667403011
aF-0.00012412684967344489
aF-9.5302021715371055e-05
aF-1.4385179269327253e-05
aF-4.138326529568026e-06
aF-6.793768340562778e-05
aF-4.0748462007744735e-05
aF-1.1773112829072119e-07
aF-0.00011065438594703991
aF-0.000126117491400346
aF-5.6523688563014929e-07
aF-9.1720017156800282e-05
aF-8.321054706372788e-05
aF-9.3021593965736393e-05
aF-3.1820283700856322e-05
aF-0.00012557628099252316
aF-1.4488704413118114e-05
aF-0.00012601214697183227
aF-0.00010151760828355522
aF-3.0980331224839119e-06
aF-3.9473891002783645e-05
aF-1.3982635580805924e-05
aF-5.0557486739322144e-06
aF-3.2673920759451747e-05
aF-8.6339389327783067e-05
aF-9.9706171258207021e-05
aF-8.7481044785508999e-05
asg15
F-3.2820076702916734
sg16
I-1
sg17
(lp157
F-0.73301854000138411
aF-0.74977131661628216
aF1.5070510740783138
aF-0.85611260592062255
aF0.017588438361476912
aF-0.56948551666906055
aF-1.0220235565705447
aF-0.63760658597489694
aF1.6292552812067067
aF-1.4367239676902577
aF0.89160791791667704
aF1.0848941686697777
aF-1.9825184663334736
aF-0.67804832693121875
aF-0.56116913847639049
aF-0.86207019065568391
aF0.42551409887816155
aF0.0095614852709063405
aF-0.98469415583616637
aF0.67147629250432506
aF1.6440698567368601
aF-0.1921615888840241
aF-0.33371318937114991
aF0.33938129067817779
aF0.0055459904562432209
aF-1.0067151268032801
aF0.34176974190459541
aF-0.24080009157480867
aF-1.0022220749502673
aF1.085357961625105
aF-1.4574497193993932
aF1.1805648193115577
aF-0.5005172850820151
asg7
F-0.0012625650233451628
sg19
F0.031673358824545868
sbag1
(g10
g3
NtRp158
(dp159
g13
(lp160
F-2.8191328621529621e-07
aF-2.4101910622853495e-07
aF-2.278660902188534e-07
aF-2.7969668165653966e-07
aF-1.8605010865258009e-09
aF-2.789121376911563e-07
aF-2.7930397639153171e-07
aF-2.7739184596531352e-07
aF-2.1297570829137413e-07
aF-3.2147206230348502e-08
aF-9.2481040603331621e-09
aF-1.5182339252461929e-07
aF-9.1062418217102703e-08
aF-2.6309904255228389e-10
aF-2.4728432612697304e-07
aF-2.8184042233370121e-07
aF-1.2631602430701605e-09
aF-2.0497084185500114e-07
aF-1.8595434680968026e-07
aF-2.0787953403100801e-07
aF-7.1110217048087065e-08
aF-2.8063095514063718e-07
aF-3.2378558501022781e-08
aF-2.8160500453733306e-07
aF-2.2686595874121807e-07
aF-6.9233137556246049e-09
aF-8.8214077154091797e-08
aF-3.1247623710761729e-08
aF-1.1298308622009756e-08
aF-7.3017878216008469e-08
aF-1.929465111571993e-07
aF-2.2281785908018215e-07
aF-1.9549781993255522e-07
asg15
F-6.3865951965890302
sg16
I-1
sg17
(lp161
F0.266869226233938
aF0.53718071176621418
aF-1.0237116513613751
aF-0.0049578081507937535
aF0.90286606892313015
aF0.14812056822103009
aF-0.39615044941242461
aF-0.09569330560084692
aF-0.67066443240589813
aF-1.4528675381990497
aF2.3347411827267726
aF-1.4047749850801083
aF-0.12887955586936528
aF0.23986376328270087
aF-1.830818433071483
aF-1.0001502463424898
aF-0.75916235294286771
aF-1.356324232746718
aF-1.0141138624379753
aF1.0306202133607014
aF-1.3266170255354575
aF-1.031416860280908
aF2.2284582673386941
aF-0.51770423179082303
aF0.47237662901592758
aF-0.20217420044610623
aF0.5638400095148165
aF0.55130971683513119
aF-0.3721544209243941
aF0.13872948349022277
aF0.4670932987426758
aF-0.16316038455374152
aF-1.4907894583753227
asg7
F-2.8215107641988199e-06
sg19
F-0.77765373255762804
sbag1
(g10
g3
NtRp162
(dp163
g13
(lp164
F-0.00022557304929388122
aF-0.0001928515518065943
aF-0.00018232715985111447
aF-0.00022379943210974751
aF-1.4886808468450585e-06
aF-0.00022317167888852296
aF-0.00022348520881548817
aF-0.00022195521674336915
aF-0.00017041261372174876
aF-2.5722602249273613e-05
aF-7.3998749203774139e-06
aF-0.00012148155926788862
aF-7.2863637002429371e-05
aF-2.1051882148626078e-07
aF-0.00019786467054550005
aF-0.00022551474731319354
aF-1.0107182756291522e-06
aF-0.00016400751603135033
aF-0.00014879145855584142
aF-0.00016633490743367396
aF-5.6898873887822887e-05
aF-0.00022454699155616265
aF-2.5907718892437259e-05
aF-0.00022532637754857365
aF-0.00018152690420425444
aF-5.5396927820250408e-06
aF-7.0584535547868477e-05
aF-2.5002800918147439e-05
aF-9.0403469973354689e-06
aF-5.8425289799268754e-05
aF-0.00015438624215580177
aF-0.00017828781533169025
aF-0.00015642767304091532
asg15
F-2.9718052049295078
sg16
I-1
sg17
(lp165
F0.34174010108645625
aF1.1888546943785983
aF-1.5712833450125774
aF-0.065230369559700394
aF0.22586709289802839
aF-0.86107400744957852
aF0.42869149676338636
aF-0.15485563028878027
aF0.88748468157894189
aF-0.01848814711781991
aF-1.6055587295413332
aF-0.11531101597374727
aF1.0558700613816479
aF-0.32124972557111869
aF-0.70629989349983147
aF-0.34814326836998671
aF-0.25793643251221871
aF0.4194076266989728
aF-1.257144420051983
aF1.0066037420071445
aF-1.1827280884017326
aF-0.81030412150206754
aF-2.2788278784290394
aF-0.79598314205979936
aF2.177500927376768
aF0.20709891017577065
aF0.99581334668023935
aF0.076830191247163865
aF-0.57569237993494449
aF1.3685791180604217
aF-1.0103510071829325
aF-0.95629607972036967
aF-0.87833296207413436
asg7
F-0.002257633172407052
sg19
F0.75685729230454213
sbag1
(g10
g3
NtRp166
(dp167
g13
(lp168
F-2.0505727298114618e-06
aF-1.7531178226892763e-06
aF-1.6574457943896448e-06
aF-2.0344496555191327e-06
aF-1.3532859388654117e-08
aF-2.0287430623211478e-06
aF-2.0315932073300402e-06
aF-2.0176848082309462e-06
aF-1.5491365639996868e-06
aF-2.3383142133681645e-07
aF-6.7268593362257434e-08
aF-1.1043286127776497e-06
aF-6.6236719103995867e-07
aF-1.9137221807241644e-09
aF-1.7986895991528584e-06
aF-2.0500427354019912e-06
aF-9.1879386321380707e-09
aF-1.4909109972149892e-06
aF-1.3525893642896136e-06
aF-1.5120681582381224e-06
aF-5.1723944638482067e-07
aF-2.0412453477502979e-06
aF-2.3551422478895745e-07
aF-2.0483303592999658e-06
aF-1.6501710673466619e-06
aF-5.0358599956723538e-08
aF-6.4164900992480511e-07
aF-2.2728806436944637e-07
aF-8.2181311533702228e-08
aF-5.3111533659944143e-07
aF-1.403448767645088e-06
aF-1.6207261165357423e-06
aF-1.4220064034065061e-06
asg15
F-5.3901552583696812
sg16
I-1
sg17
(lp169
F0.15885048698801524
aF-0.60010050371615498
aF-1.1203804342237806
aF-0.88253286220590421
aF-0.69303892051965121
aF-0.92422341227157911
aF-0.93099540653154167
aF0.88920013472279003
aF0.23032532131955519
aF1.7849561030661694
aF1.7283612361667353
aF-1.218819101205632
aF0.21957642398622756
aF0.80051400363647596
aF0.60944125285392559
aF-0.43570779229808887
aF0.27798259824593402
aF0.66158284597326456
aF-0.6726927540835872
aF-0.56805802430012664
aF1.207630153811893
aF-0.3952773373946511
aF-1.3208928404137183
aF0.071853329858201365
aF-2.4263294172410967
aF0.54821504553889977
aF-0.41004690113054371
aF-1.5865824230628107
aF1.0284346030549232
aF0.88577203293169271
aF1.0280113327893434
aF0.25227730261315739
aF0.32080425457767736
asg7
F-2.0523023613657917e-05
sg19
F0.844453393899113
sbag1
(g10
g3
NtRp170
(dp171
g13
(lp172
F0.00057450768933392515
aF0.00049116993257714014
aF0.00046436555979012528
aF0.00056999049761530252
aF3.7914928053828234e-06
aF0.00056839168493028058
aF0.00056919020831086575
aF0.0005652935007351978
aF0.00043402062989850165
aF6.5512404199719043e-05
aF1.8846600048805229e-05
aF0.00030939906221139069
aF0.00018557500491223067
aF5.3616636409847818e-07
aF0.00050393774890999943
aF0.00057435920113335648
aF2.5741790648514673e-06
aF0.00041770760896986392
aF0.00037895412291133468
aF0.00042363519766430713
aF0.00014491465476629273
aF0.00057189444248628707
aF6.5983874241171137e-05
aF0.000573879445778816
aF0.00046232740397300631
aF1.410893770237287e-05
aF0.00017977040496318375
aF6.3679155942075738e-05
aF2.302468703818672e-05
aF0.00014880225428659521
aF0.00039320337036524711
aF0.00045407783041129246
aF0.00039840265168167299
asg15
F2.4558186228198329
sg16
I-1
sg17
(lp173
F0.31620391232393563
aF1.471138570246749
aF0.68215139693908089
aF-1.1811588206349801
aF0.89098413108256613
aF0.35159313100378292
aF-0.24006382417021796
aF-0.56193105633109885
aF0.15538840336617957
aF-1.8612684271667503
aF-1.6091281421982795
aF-0.55408860548045324
aF-1.0103456267092106
aF0.069035342687069901
aF1.4732246185493814
aF-0.1113815623035905
aF0.4270703894353986
aF-0.61666716177250014
aF0.62995099499304708
aF0.60148644577040744
aF-0.47762784527689855
aF0.5137121897465976
aF-1.8673706040883591
aF-0.11376409087970407
aF1.2596336453732333
aF0.61673677645160563
aF0.081983992838331854
aF-2.7853516060131498
aF0.95303126639584468
aF-0.65906282782572878
aF0.41711920713715189
aF-0.59818911313483658
aF0.76156983001736323
asg7
F0.0057499227913239198
sg19
F-0.11257889245768607
sbag1
(g10
g3
NtRp174
(dp175
g13
(lp176
F-0.00031489130252659869
aF-0.00026921335032159543
aF-0.00025452170386147666
aF-0.0003124154011409086
aF-2.0781412157777623e-06
aF-0.00031153908178405132
aF-0.00031197675750549436
aF-0.00030984094740782453
aF-0.00023788945563207875
aF-3.590776359141401e-05
aF-1.0329940830500206e-05
aF-0.00016958358523133654
aF-0.00010171483532439574
aF-2.9387617939136135e-07
aF-0.00027621147130441059
aF-0.00031480991520355106
aF-1.4109238460902063e-06
aF-0.00022894818556085106
aF-0.00020770715445017629
aF-0.00023219713446004375
aF-7.9428639932377365e-05
aF-0.00031345896538126361
aF-3.6166179306684754e-05
aF-0.00031454695825572365
aF-0.00025340457775169245
aF-7.7331980978811998e-06
aF-9.853329733533478e-05
aF-3.4902948612747231e-05
aF-1.2619976766714558e-05
aF-8.1559457847379946e-05
aF-0.00021551725721147275
aF-0.00024888293424307761
aF-0.00021836701622485188
asg15
F-2.7905631111784439
sg16
I-1
sg17
(lp177
F-0.65004283049582989
aF-0.19185827028301622
aF0.44742168185775322
aF-1.1544350256235405
aF0.49655945459540196
aF-1.1990337698551154
aF0.055619610061575953
aF0.77509630536272811
aF-1.1000875036480293
aF1.5339205249039702
aF-1.2493812536139979
aF0.78148617998513592
aF-1.0462837391993498
aF-0.60229949079121092
aF1.1872500453323358
aF0.16637331956269008
aF-0.67463350818718149
aF-0.5615027634248182
aF2.5208137549776741
aF0.25167323010101095
aF1.0445631020543602
aF-0.60209109659148508
aF0.73554091398269472
aF-1.1922796902765043
aF-0.97200357521263558
aF0.018513332775848428
aF-1.9049616420430853
aF0.26179095629004351
aF0.77899699944597556
aF-0.91077707768191485
aF0.94868775254824167
aF0.56048067256084411
aF-0.40573039960133317
asg7
F-0.0031515690926371244
sg19
F0.6794532282070922
sbag1
(g10
g3
NtRp178
(dp179
g13
(lp180
F-1.6777385715149862e-06
aF-1.434366774022422e-06
aF-1.3560897885178669e-06
aF-1.6645469869125407e-06
aF-1.1072321282057374e-08
aF-1.6598779637444494e-06
aF-1.6622098968355203e-06
aF-1.6508303161133497e-06
aF-1.2674732908224406e-06
aF-1.9131630346613804e-07
aF-5.5037849833183827e-08
aF-9.0354010973126009e-07
aF-5.419359034863902e-07
aF-1.5657701801785606e-09
aF-1.4716527119151834e-06
aF-1.6773049404256168e-06
aF-7.5173919866777794e-09
aF-1.2198342688729547e-06
aF-1.1066622094269007e-06
aF-1.2371446449499501e-06
aF-4.2319521631473123e-07
aF-1.6701070895686065e-06
aF-1.9269314055492259e-07
aF-1.6759039077329785e-06
aF-1.3501377487123989e-06
aF-4.1202423251007758e-08
aF-5.2498469216288868e-07
aF-1.8596265660697497e-07
aF-6.7239144502240222e-08
aF-4.3454819875776707e-07
aF-1.1482743802471163e-06
aF-1.3260464649667014e-06
aF-1.1634578755970182e-06
asg15
F-5.4911458069896364
sg16
I-1
sg17
(lp181
F0.84410557198382397
aF-1.1829772756300021
aF0.072696829778132702
aF0.614928230569872
aF-0.5927642670106843
aF0.46979839403982115
aF-0.92540812809989181
aF-0.81107695632243748
aF0.41195856846509904
aF-0.76456851639690049
aF-2.0444572405939674
aF-0.13611576206850454
aF1.0291210462801199
aF0.55408129836440334
aF-1.8271613427077578
aF0.063637091309922539
aF-0.46015843627221736
aF-0.27231358233288305
aF-0.98771997129151301
aF-1.7759391947798349
aF0.82416848737995396
aF-0.41890449698714788
aF-1.2658348658182033
aF0.16539639175411247
aF-1.4781306469488573
aF0.62893289013918952
aF0.97110255921649979
aF1.419039521210455
aF-0.1795620490446577
aF-0.96525915000385598
aF1.0874023461826692
aF0.43671225575229655
aF-1.0157809712105939
asg7
F-1.6791537222577746e-05
sg19
F0.6847658135236917
sbag1
(g10
g3
NtRp182
(dp183
g13
(lp184
F-9.6308701782454875e-06
aF-8.2338216597088731e-06
aF-7.784481399694676e-06
aF-9.555145365824913e-06
aF-6.3559419061220979e-08
aF-9.5283433617643354e-06
aF-9.5417295621347265e-06
aF-9.4764063550134559e-06
aF-7.2757883295970771e-06
aF-1.098229791565708e-06
aF-3.1593860572165511e-07
aF-5.1866707039271986e-06
aF-3.1109222971004158e-06
aF-8.9881280196379976e-09
aF-8.4478574051694011e-06
aF-9.6283809677411014e-06
aF-4.3152746043162438e-08
aF-7.0023218647075058e-06
aF-6.3526703454330757e-06
aF-7.101690138178185e-06
aF-2.4293046949619423e-06
aF-9.5870625119731656e-06
aF-1.1061333703432652e-06
aF-9.6203384965520833e-06
aF-7.7503143827151177e-06
aF-2.365178915497701e-07
aF-3.0136157691540433e-06
aF-1.0674977817259901e-06
aF-3.8597877083379473e-07
aF-2.4944752174960172e-06
aF-6.5915403465455213e-06
aF-7.6120210690255874e-06
aF-6.67869949921851e-06
asg15
F-4.6086809282079804
sg16
I-1
sg17
(lp185
F-1.3861820643953719
aF-0.56361236065440845
aF-0.09952801877266193
aF-0.88283983683802181
aF-0.53744596141584067
aF-0.94213777961934442
aF-0.13541268804176962
aF-0.13467170170243661
aF-2.5160959699734051
aF0.10573633700674639
aF-0.56547487166143129
aF0.39723276591037049
aF1.4874800824861065
aF-0.69392998333372879
aF-1.956631215084472
aF-0.17052713609636952
aF-1.007090749288676
aF0.19781920087936034
aF0.63715558216057044
aF0.90238529378928023
aF0.47535076096274026
aF-0.89415184896193545
aF0.52579454391025138
aF0.33400833083759029
aF2.006433397746691
aF0.2139024829114255
aF-0.87986435229706506
aF0.35351742798537722
aF-0.64623455885799863
aF1.1133628263219089
aF0.75493551027788863
aF-2.0468205164539346
aF1.2476825903858508
asg7
F-9.6389936925847969e-05
sg19
F-0.25484749687875546
sbag1
(g10
g3
NtRp186
(dp187
g13
(lp188
F-8.690539290873156e-05
aF-7.4298946329154347e-05
aF-7.0244266832386604e-05
aF-8.6222080346642915e-05
aF-5.7353657412217984e-07
aF-8.5980229023840948e-05
aF-8.6101021120199225e-05
aF-8.5511568778340319e-05
aF-6.5654009636650912e-05
aF-9.9100174515420747e-06
aF-2.8509125510889355e-06
aF-4.6802588661964961e-05
aF-2.8071806549082035e-05
aF-8.1105526350544466e-08
aF-7.623032534398444e-05
aF-8.6882931198184465e-05
aF-3.8939434093832048e-07
aF-6.3186349899990724e-05
aF-5.732413605152864e-05
aF-6.4083012266839823e-05
aF-2.1921142648761993e-05
aF-8.6510088810443087e-05
aF-9.981336408587671e-06
aF-8.6810358927436049e-05
aF-6.9935956368727403e-05
aF-2.1342495449827581e-06
aF-2.7193748607268198e-05
aF-9.6327032170773208e-06
aF-3.4829289682347664e-06
aF-2.2509217221244882e-05
aF-5.9479610158508223e-05
aF-6.868804890802771e-05
aF-6.0266101956640838e-05
asg15
F-3.4780290980185047
sg16
I-1
sg17
(lp189
F0.21562256145101347
aF2.1381368439455946
aF0.37129381435267106
aF-0.40643026738908278
aF-0.75396397096748213
aF-1.6416770276250341
aF-0.0055631008154435916
aF-1.0235897430922465
aF1.048096061715748
aF1.9096871113712151
aF0.40758803880773808
aF1.9563539117677093
aF0.066508680300778694
aF0.32354077386743207
aF0.88006850968112182
aF-1.6177564165330021
aF0.25240397867116438
aF-0.97987739020213593
aF-1.9977449184493219
aF0.042105416156272037
aF-0.96103065724281989
aF-0.65254532434639156
aF-0.22827895666251471
aF-0.50195940427319541
aF-0.76014281185302834
aF0.44601835832977971
aF0.5999901016055772
aF1.0813241878147959
aF-0.22364994250369583
aF0.86058091859654984
aF0.67598505844580814
aF-0.54137514135388309
aF1.2292285425781522
asg7
F-0.00086978696482585994
sg19
F1.4230556268593375
sbasS'trained'
p190
I00
sb.